        table_op:
000000  0200                          op_00 - dc.w  table_op
000002  020c                          op_01 - dc.w  table_op
000004  0220                          op_02 - dc.w  table_op
000006  0234                          op_03 - dc.w  table_op
000008  0244                          op_04 - dc.w  table_op
00000a  0268                          op_05 - dc.w  table_op
00000c  028c                          op_06 - dc.w  table_op
00000e  029c                          op_07 - dc.w  table_op
000010  02ac                          op_08 - dc.w  table_op
000012  0310                          op_09 - dc.w  table_op
000014  0324                          op_0a - dc.w  table_op
000016  0338                          op_0b - dc.w  table_op
000018  0348                          op_0c - dc.w  table_op
00001a  036c                          op_0d - dc.w  table_op
00001c  0390                          op_0e - dc.w  table_op
00001e  03a0                          op_0f - dc.w  table_op
000020  03b0                          op_10 - dc.w  table_op
000022  03d6                          op_11 - dc.w  table_op
000024  03ea                          op_12 - dc.w  table_op
000026  03fe                          op_13 - dc.w  table_op
000028  040e                          op_14 - dc.w  table_op
00002a  0432                          op_15 - dc.w  table_op
00002c  0456                          op_16 - dc.w  table_op
00002e  0466                          op_17 - dc.w  table_op
000030  0478                          op_18 - dc.w  table_op
000032  048a                          op_19 - dc.w  table_op
000034  049e                          op_1a - dc.w  table_op
000036  04b2                          op_1b - dc.w  table_op
000038  04c2                          op_1c - dc.w  table_op
00003a  04e6                          op_1d - dc.w  table_op
00003c  050a                          op_1e - dc.w  table_op
00003e  051a                          op_1f - dc.w  table_op
000040  052c                          op_20 - dc.w  table_op
000042  0550                          op_21 - dc.w  table_op
000044  0562                          op_22 - dc.w  table_op
000046  0580                          op_23 - dc.w  table_op
000048  058e                          op_24 - dc.w  table_op
00004a  05ae                          op_25 - dc.w  table_op
00004c  05ce                          op_26 - dc.w  table_op
00004e  05dc                          op_27 - dc.w  table_op
000050  0660                          op_28 - dc.w  table_op
000052  0684                          op_29 - dc.w  table_op
000054  0694                          op_2a - dc.w  table_op
000056  06b2                          op_2b - dc.w  table_op
000058  06c0                          op_2c - dc.w  table_op
00005a  06e4                          op_2d - dc.w  table_op
00005c  0708                          op_2e - dc.w  table_op
00005e  0718                          op_2f - dc.w  table_op
000060  072c                          op_30 - dc.w  table_op
000062  0750                          op_31 - dc.w  table_op
000064  0768                          op_32 - dc.w  table_op
000066  0780                          op_33 - dc.w  table_op
000068  078e                          op_34 - dc.w  table_op
00006a  07b4                          op_35 - dc.w  table_op
00006c  07da                          op_36 - dc.w  table_op
00006e  07ec                          op_37 - dc.w  table_op
000070  07fc                          op_38 - dc.w  table_op
000072  0820                          op_39 - dc.w  table_op
000074  0834                          op_3a - dc.w  table_op
000076  084c                          op_3b - dc.w  table_op
000078  085a                          op_3c - dc.w  table_op
00007a  087a                          op_3d - dc.w  table_op
00007c  089a                          op_3e - dc.w  table_op
00007e  08a8                          op_3f - dc.w  table_op
000080  08b6                          op_40 - dc.w  table_op
000082  08c2                          op_41 - dc.w  table_op
000084  08d4                          op_42 - dc.w  table_op
000086  08e6                          op_43 - dc.w  table_op
000088  08f8                          op_44 - dc.w  table_op
00008a  0908                          op_45 - dc.w  table_op
00008c  091a                          op_46 - dc.w  table_op
00008e  092e                          op_47 - dc.w  table_op
000090  093e                          op_48 - dc.w  table_op
000092  0950                          op_49 - dc.w  table_op
000094  095c                          op_4a - dc.w  table_op
000096  096e                          op_4b - dc.w  table_op
000098  0980                          op_4c - dc.w  table_op
00009a  0990                          op_4d - dc.w  table_op
00009c  09a2                          op_4e - dc.w  table_op
00009e  09b6                          op_4f - dc.w  table_op
0000a0  09c6                          op_50 - dc.w  table_op
0000a2  09d8                          op_51 - dc.w  table_op
0000a4  09ea                          op_52 - dc.w  table_op
0000a6  09f6                          op_53 - dc.w  table_op
0000a8  0a08                          op_54 - dc.w  table_op
0000aa  0a18                          op_55 - dc.w  table_op
0000ac  0a2a                          op_56 - dc.w  table_op
0000ae  0a3e                          op_57 - dc.w  table_op
0000b0  0a4e                          op_58 - dc.w  table_op
0000b2  0a60                          op_59 - dc.w  table_op
0000b4  0a72                          op_5a - dc.w  table_op
0000b6  0a84                          op_5b - dc.w  table_op
0000b8  0a90                          op_5c - dc.w  table_op
0000ba  0aa0                          op_5d - dc.w  table_op
0000bc  0ab2                          op_5e - dc.w  table_op
0000be  0ac6                          op_5f - dc.w  table_op
0000c0  0ad6                          op_60 - dc.w  table_op
0000c2  0ae6                          op_61 - dc.w  table_op
0000c4  0af6                          op_62 - dc.w  table_op
0000c6  0b06                          op_63 - dc.w  table_op
0000c8  0b16                          op_64 - dc.w  table_op
0000ca  0b22                          op_65 - dc.w  table_op
0000cc  0b32                          op_66 - dc.w  table_op
0000ce  0b44                          op_67 - dc.w  table_op
0000d0  0b52                          op_68 - dc.w  table_op
0000d2  0b64                          op_69 - dc.w  table_op
0000d4  0b76                          op_6a - dc.w  table_op
0000d6  0b88                          op_6b - dc.w  table_op
0000d8  0b9a                          op_6c - dc.w  table_op
0000da  0baa                          op_6d - dc.w  table_op
0000dc  0bb6                          op_6e - dc.w  table_op
0000de  0bca                          op_6f - dc.w  table_op
0000e0  0bda                          op_70 - dc.w  table_op
0000e2  0bee                          op_71 - dc.w  table_op
0000e4  0c02                          op_72 - dc.w  table_op
0000e6  0c16                          op_73 - dc.w  table_op
0000e8  0c2a                          op_74 - dc.w  table_op
0000ea  0c3c                          op_75 - dc.w  table_op
0000ec  0c50                          op_76 - dc.w  table_op
0000ee  0c78                          op_77 - dc.w  table_op
0000f0  0c8a                          op_78 - dc.w  table_op
0000f2  0c9a                          op_79 - dc.w  table_op
0000f4  0caa                          op_7a - dc.w  table_op
0000f6  0cba                          op_7b - dc.w  table_op
0000f8  0cca                          op_7c - dc.w  table_op
0000fa  0cd8                          op_7d - dc.w  table_op
0000fc  0ce8                          op_7e - dc.w  table_op
0000fe  0cfa                          op_7f - dc.w  table_op
000100  0d06                          op_80 - dc.w  table_op
000102  0d34                          op_81 - dc.w  table_op
000104  0d62                          op_82 - dc.w  table_op
000106  0d90                          op_83 - dc.w  table_op
000108  0dbe                          op_84 - dc.w  table_op
00010a  0dea                          op_85 - dc.w  table_op
00010c  0e18                          op_86 - dc.w  table_op
00010e  0e48                          op_87 - dc.w  table_op
000110  0e6a                          op_88 - dc.w  table_op
000112  0ea0                          op_89 - dc.w  table_op
000114  0ed6                          op_8a - dc.w  table_op
000116  0f0c                          op_8b - dc.w  table_op
000118  0f42                          op_8c - dc.w  table_op
00011a  0f76                          op_8d - dc.w  table_op
00011c  0fac                          op_8e - dc.w  table_op
00011e  0fe4                          op_8f - dc.w  table_op
000120  100a                          op_90 - dc.w  table_op
000122  1038                          op_91 - dc.w  table_op
000124  1066                          op_92 - dc.w  table_op
000126  1094                          op_93 - dc.w  table_op
000128  10c2                          op_94 - dc.w  table_op
00012a  10ee                          op_95 - dc.w  table_op
00012c  111c                          op_96 - dc.w  table_op
00012e  114c                          op_97 - dc.w  table_op
000130  1168                          op_98 - dc.w  table_op
000132  119e                          op_99 - dc.w  table_op
000134  11d4                          op_9a - dc.w  table_op
000136  120a                          op_9b - dc.w  table_op
000138  1240                          op_9c - dc.w  table_op
00013a  1274                          op_9d - dc.w  table_op
00013c  12aa                          op_9e - dc.w  table_op
00013e  12e2                          op_9f - dc.w  table_op
000140  12fe                          op_a0 - dc.w  table_op
000142  1316                          op_a1 - dc.w  table_op
000144  132e                          op_a2 - dc.w  table_op
000146  1346                          op_a3 - dc.w  table_op
000148  135e                          op_a4 - dc.w  table_op
00014a  1374                          op_a5 - dc.w  table_op
00014c  138c                          op_a6 - dc.w  table_op
00014e  13a6                          op_a7 - dc.w  table_op
000150  13bc                          op_a8 - dc.w  table_op
000152  13d6                          op_a9 - dc.w  table_op
000154  13f0                          op_aa - dc.w  table_op
000156  140a                          op_ab - dc.w  table_op
000158  1424                          op_ac - dc.w  table_op
00015a  143c                          op_ad - dc.w  table_op
00015c  1456                          op_ae - dc.w  table_op
00015e  1472                          op_af - dc.w  table_op
000160  148a                          op_b0 - dc.w  table_op
000162  14a2                          op_b1 - dc.w  table_op
000164  14ba                          op_b2 - dc.w  table_op
000166  14d2                          op_b3 - dc.w  table_op
000168  14ea                          op_b4 - dc.w  table_op
00016a  1500                          op_b5 - dc.w  table_op
00016c  1518                          op_b6 - dc.w  table_op
00016e  1532                          op_b7 - dc.w  table_op
000170  154c                          op_b8 - dc.w  table_op
000172  1566                          op_b9 - dc.w  table_op
000174  1580                          op_ba - dc.w  table_op
000176  159a                          op_bb - dc.w  table_op
000178  15b4                          op_bc - dc.w  table_op
00017a  15cc                          op_bd - dc.w  table_op
00017c  15e6                          op_be - dc.w  table_op
00017e  1602                          op_bf - dc.w  table_op
000180  1618                          op_c0 - dc.w  table_op
000182  1644                          op_c1 - dc.w  table_op
000184  165a                          op_c2 - dc.w  table_op
000186  1688                          op_c3 - dc.w  table_op
000188  16a2                          op_c4 - dc.w  table_op
00018a  16dc                          op_c5 - dc.w  table_op
00018c  16f2                          op_c6 - dc.w  table_op
00018e  171e                          op_c7 - dc.w  table_op
000190  173a                          op_c8 - dc.w  table_op
000192  1766                          op_c9 - dc.w  table_op
000194  1780                          op_ca - dc.w  table_op
000196  17ae                          op_cb - dc.w  table_op
000198  17c0                          op_cc - dc.w  table_op
00019a  17fa                          op_cd - dc.w  table_op
00019c  1820                          op_ce - dc.w  table_op
00019e  1854                          op_cf - dc.w  table_op
0001a0  1872                          op_d0 - dc.w  table_op
0001a2  189e                          op_d1 - dc.w  table_op
0001a4  18b4                          op_d2 - dc.w  table_op
0001a6  18e2                          op_d3 - dc.w  table_op
0001a8  190c                          op_d4 - dc.w  table_op
0001aa  1946                          op_d5 - dc.w  table_op
0001ac  195c                          op_d6 - dc.w  table_op
0001ae  1988                          op_d7 - dc.w  table_op
0001b0  19a6                          op_d8 - dc.w  table_op
0001b2  19d2                          op_d9 - dc.w  table_op
0001b4  19f8                          op_da - dc.w  table_op
0001b6  1a26                          op_db - dc.w  table_op
0001b8  1a52                          op_dc - dc.w  table_op
0001ba  1a8c                          op_dd - dc.w  table_op
0001bc  1a9e                          op_de - dc.w  table_op
0001be  1ad2                          op_df - dc.w  table_op
0001c0  1af0                          op_e0 - dc.w  table_op
0001c2  1b1c                          op_e1 - dc.w  table_op
0001c4  1b30                          op_e2 - dc.w  table_op
0001c6  1b5e                          op_e3 - dc.w  table_op
0001c8  1b7c                          op_e4 - dc.w  table_op
0001ca  1bb6                          op_e5 - dc.w  table_op
0001cc  1bca                          op_e6 - dc.w  table_op
0001ce  1be0                          op_e7 - dc.w  table_op
0001d0  1bfe                          op_e8 - dc.w  table_op
0001d2  1c2a                          op_e9 - dc.w  table_op
0001d4  1c3e                          op_ea - dc.w  table_op
0001d6  1c6c                          op_eb - dc.w  table_op
0001d8  1c84                          op_ec - dc.w  table_op
0001da  1cbe                          op_ed - dc.w  table_op
0001dc  1cd0                          op_ee - dc.w  table_op
0001de  1ce8                          op_ef - dc.w  table_op
0001e0  1d06                          op_f0 - dc.w  table_op
0001e2  1d32                          op_f1 - dc.w  table_op
0001e4  1d68                          op_f2 - dc.w  table_op
0001e6  1d96                          op_f3 - dc.w  table_op
0001e8  1da4                          op_f4 - dc.w  table_op
0001ea  1dde                          op_f5 - dc.w  table_op
0001ec  1e18                          op_f6 - dc.w  table_op
0001ee  1e2e                          op_f7 - dc.w  table_op
0001f0  1e4c                          op_f8 - dc.w  table_op
0001f2  1e78                          op_f9 - dc.w  table_op
0001f4  1e8c                          op_fa - dc.w  table_op
0001f6  1eba                          op_fb - dc.w  table_op
0001f8  1ec8                          op_fc - dc.w  table_op
0001fa  1f02                          op_fd - dc.w  table_op
0001fc  1f14                          op_fe - dc.w  table_op
0001fe  1f2c                          op_ff - dc.w  table_op
        op_00:                        ; nop
000200  1019                          MOVE.b    (A1)+,D0
000202  d040                          ADD.w     D0,D0
000204  3233 0000                     MOVE.w    $00(A3,D0),D1
000208  4ef3 1000                     JMP       $00(A3,D1)
        op_01:                        ; ld bc,nn
00020c  1b59 0005                     MOVE.b    (A1)+,$0005(A5)
000210  1b59 0004                     MOVE.b    (A1)+,$0004(A5)
000214  1019                          MOVE.b    (A1)+,D0
000216  d040                          ADD.w     D0,D0
000218  3233 0000                     MOVE.w    $00(A3,D0),D1
00021c  4ef3 1000                     JMP       $00(A3,D1)
        op_02:                        ; ld (bc),a
000220  322d 0004                     MOVE.w    ($0004,a5),D1
000224  1d87 1800                     MOVE.b    D7,$00(A6,D1.l)
000228  1019                          MOVE.b    (A1)+,D0
00022a  d040                          ADD.w     D0,D0
00022c  3233 0000                     MOVE.w    $00(A3,D0),D1
000230  4ef3 1000                     JMP       $00(A3,D1)
        op_03:                        ; inc bc
000234  526d 0004                     ADDQ.w    #1,$0004(A5)
000238  1019                          MOVE.b    (A1)+,D0
00023a  d040                          ADD.w     D0,D0
00023c  3233 0000                     MOVE.w    $00(A3,D0),D1
000240  4ef3 1000                     JMP       $00(A3,D1)
        op_04:                        ; inc b
000244  522d 0004                     ADDQ.b    #1,$0004(A5)
000248  59c5                          SVS       D5
00024a  57c3                          SEQ       D3
00024c  5bc2                          SMI       D2
00024e  122d 0004                     MOVE.b    ($0004,a5),D1
000252  c23c 000f                     AND.b     #$000f,D1
000256  57c4                          SEQ       D4
000258  cc7c 7fff                     AND.w     #$7fff,D6
00025c  1019                          MOVE.b    (A1)+,D0
00025e  d040                          ADD.w     D0,D0
000260  3233 0000                     MOVE.w    $00(A3,D0),D1
000264  4ef3 1000                     JMP       $00(A3,D1)
        op_05:                        ; dec b
000268  122d 0004                     MOVE.b    ($0004,a5),D1
00026c  c23c 000f                     AND.b     #$000f,D1
000270  57c4                          SEQ       D4
000272  532d 0004                     SUBQ.b    #1,$0004(A5)
000276  59c5                          SVS       D5
000278  57c3                          SEQ       D3
00027a  5bc2                          SMI       D2
00027c  8c7c 8000                     OR.w      #$8000,D6
000280  1019                          MOVE.b    (A1)+,D0
000282  d040                          ADD.w     D0,D0
000284  3233 0000                     MOVE.w    $00(A3,D0),D1
000288  4ef3 1000                     JMP       $00(A3,D1)
        op_06:                        ; ld b,n
00028c  1b59 0004                     MOVE.b    (A1)+,$0004(A5)
000290  1019                          MOVE.b    (A1)+,D0
000292  d040                          ADD.w     D0,D0
000294  3233 0000                     MOVE.w    $00(A3,D0),D1
000298  4ef3 1000                     JMP       $00(A3,D1)
        op_07:                        ; rlca
00029c  e31f                          ROL.b     #1,D7
00029e  55c6                          SCS       D6
0002a0  1019                          MOVE.b    (A1)+,D0
0002a2  d040                          ADD.w     D0,D0
0002a4  3233 0000                     MOVE.w    $00(A3,D0),D1
0002a8  4ef3 1000                     JMP       $00(A3,D1)
        op_08:                        ; ex af,af'
0002ac  1207                          MOVE.b    D7,D1
0002ae  1e2d 0016                     MOVE.b    ($0016,a5),D7
0002b2  1b41 0016                     MOVE.b    D1,$0016(A5)
0002b6  1202                          MOVE.b    D2,D1
0002b8  142d 000e                     MOVE.b    ($000e,a5),D2
0002bc  1b41 000e                     MOVE.b    D1,$000e(A5)
0002c0  1203                          MOVE.b    D3,D1
0002c2  162d 000f                     MOVE.b    ($000f,a5),D3
0002c6  1b41 000f                     MOVE.b    D1,$000f(A5)
0002ca  122d 0006                     MOVE.b    ($0006,a5),D1
0002ce  1b6d 0010 0006                MOVE.b    ($0010,a5),$0006(A5)
0002d4  1b41 0010                     MOVE.b    D1,$0010(A5)
0002d8  1204                          MOVE.b    D4,D1
0002da  182d 0011                     MOVE.b    ($0011,a5),D4
0002de  1b41 0011                     MOVE.b    D1,$0011(A5)
0002e2  122d 0007                     MOVE.b    ($0007,a5),D1
0002e6  1b6d 0012 0007                MOVE.b    ($0012,a5),$0007(A5)
0002ec  1b41 0012                     MOVE.b    D1,$0012(A5)
0002f0  1205                          MOVE.b    D5,D1
0002f2  1a2d 0013                     MOVE.b    ($0013,a5),D5
0002f6  1b41 0013                     MOVE.b    D1,$0013(A5)
0002fa  3206                          MOVE.w    D6,D1
0002fc  3c2d 0014                     MOVE.w    ($0014,a5),D6
000300  3b41 0014                     MOVE.w    D1,$0014(A5)
000304  1019                          MOVE.b    (A1)+,D0
000306  d040                          ADD.w     D0,D0
000308  3233 0000                     MOVE.w    $00(A3,D0),D1
00030c  4ef3 1000                     JMP       $00(A3,D1)
        op_09:                        ; add hl,bc
000310  322d 0004                     MOVE.w    ($0004,a5),D1
000314  d355                          ADD.w     D1,(A5)
000316  55c6                          SCS       D6
000318  1019                          MOVE.b    (A1)+,D0
00031a  d040                          ADD.w     D0,D0
00031c  3233 0000                     MOVE.w    $00(A3,D0),D1
000320  4ef3 1000                     JMP       $00(A3,D1)
        op_0a:                        ; ld a,(bc)
000324  322d 0004                     MOVE.w    ($0004,a5),D1
000328  1e36 1800                     MOVE.b    $00(A6,D1.l),D7
00032c  1019                          MOVE.b    (A1)+,D0
00032e  d040                          ADD.w     D0,D0
000330  3233 0000                     MOVE.w    $00(A3,D0),D1
000334  4ef3 1000                     JMP       $00(A3,D1)
        op_0b:                        ; dec bc
000338  536d 0004                     SUBQ.w    #1,$0004(A5)
00033c  1019                          MOVE.b    (A1)+,D0
00033e  d040                          ADD.w     D0,D0
000340  3233 0000                     MOVE.w    $00(A3,D0),D1
000344  4ef3 1000                     JMP       $00(A3,D1)
        op_0c:                        ; inc c
000348  522d 0005                     ADDQ.b    #1,$0005(A5)
00034c  59c5                          SVS       D5
00034e  57c3                          SEQ       D3
000350  5bc2                          SMI       D2
000352  122d 0005                     MOVE.b    ($0005,a5),D1
000356  c23c 000f                     AND.b     #$000f,D1
00035a  57c4                          SEQ       D4
00035c  cc7c 7fff                     AND.w     #$7fff,D6
000360  1019                          MOVE.b    (A1)+,D0
000362  d040                          ADD.w     D0,D0
000364  3233 0000                     MOVE.w    $00(A3,D0),D1
000368  4ef3 1000                     JMP       $00(A3,D1)
        op_0d:                        ; dec c
00036c  122d 0005                     MOVE.b    ($0005,a5),D1
000370  c23c 000f                     AND.b     #$000f,D1
000374  57c4                          SEQ       D4
000376  532d 0005                     SUBQ.b    #1,$0005(A5)
00037a  59c5                          SVS       D5
00037c  57c3                          SEQ       D3
00037e  5bc2                          SMI       D2
000380  8c7c 8000                     OR.w      #$8000,D6
000384  1019                          MOVE.b    (A1)+,D0
000386  d040                          ADD.w     D0,D0
000388  3233 0000                     MOVE.w    $00(A3,D0),D1
00038c  4ef3 1000                     JMP       $00(A3,D1)
        op_0e:                        ; ld c,n
000390  1b59 0005                     MOVE.b    (A1)+,$0005(A5)
000394  1019                          MOVE.b    (A1)+,D0
000396  d040                          ADD.w     D0,D0
000398  3233 0000                     MOVE.w    $00(A3,D0),D1
00039c  4ef3 1000                     JMP       $00(A3,D1)
        op_0f:                        ; rrca
0003a0  e21f                          ROR.b     #1,D7
0003a2  55c6                          SCS       D6
0003a4  1019                          MOVE.b    (A1)+,D0
0003a6  d040                          ADD.w     D0,D0
0003a8  3233 0000                     MOVE.w    $00(A3,D0),D1
0003ac  4ef3 1000                     JMP       $00(A3,D1)
        op_10:                        ; djnz d
0003b0  532d 0004                     SUBQ.b    #1,$0004(A5)
0003b4  6712                          BEQ       $000001c8
0003b6  1219                          MOVE.b    (A1)+,D1
0003b8  4881                          EXT.w     D1
0003ba  d2c1                          ADDA.w    D1,A1
0003bc  1019                          MOVE.b    (A1)+,D0
0003be  d040                          ADD.w     D0,D0
0003c0  3233 0000                     MOVE.w    $00(A3,D0),D1
0003c4  4ef3 1000                     JMP       $00(A3,D1)
0003c8  5289                          ADDQ.l    #1,A1
0003ca  1019                          MOVE.b    (A1)+,D0
0003cc  d040                          ADD.w     D0,D0
0003ce  3233 0000                     MOVE.w    $00(A3,D0),D1
0003d2  4ef3 1000                     JMP       $00(A3,D1)
        op_11:                        ; ld de,nn
0003d6  1b59 0003                     MOVE.b    (A1)+,$0003(A5)
0003da  1b59 0002                     MOVE.b    (A1)+,$0002(A5)
0003de  1019                          MOVE.b    (A1)+,D0
0003e0  d040                          ADD.w     D0,D0
0003e2  3233 0000                     MOVE.w    $00(A3,D0),D1
0003e6  4ef3 1000                     JMP       $00(A3,D1)
        op_12:                        ; ld (de),a
0003ea  322d 0002                     MOVE.w    ($0002,a5),D1
0003ee  1d87 1800                     MOVE.b    D7,$00(A6,D1.l)
0003f2  1019                          MOVE.b    (A1)+,D0
0003f4  d040                          ADD.w     D0,D0
0003f6  3233 0000                     MOVE.w    $00(A3,D0),D1
0003fa  4ef3 1000                     JMP       $00(A3,D1)
        op_13:                        ; inc de
0003fe  526d 0002                     ADDQ.w    #1,$0002(A5)
000402  1019                          MOVE.b    (A1)+,D0
000404  d040                          ADD.w     D0,D0
000406  3233 0000                     MOVE.w    $00(A3,D0),D1
00040a  4ef3 1000                     JMP       $00(A3,D1)
        op_14:                        ; inc d
00040e  522d 0002                     ADDQ.b    #1,$0002(A5)
000412  59c5                          SVS       D5
000414  57c3                          SEQ       D3
000416  5bc2                          SMI       D2
000418  122d 0002                     MOVE.b    ($0002,a5),D1
00041c  c23c 000f                     AND.b     #$000f,D1
000420  57c4                          SEQ       D4
000422  cc7c 7fff                     AND.w     #$7fff,D6
000426  1019                          MOVE.b    (A1)+,D0
000428  d040                          ADD.w     D0,D0
00042a  3233 0000                     MOVE.w    $00(A3,D0),D1
00042e  4ef3 1000                     JMP       $00(A3,D1)
        op_15:                        ; dec d
000432  122d 0002                     MOVE.b    ($0002,a5),D1
000436  c23c 000f                     AND.b     #$000f,D1
00043a  57c4                          SEQ       D4
00043c  532d 0002                     SUBQ.b    #1,$0002(A5)
000440  59c5                          SVS       D5
000442  57c3                          SEQ       D3
000444  5bc2                          SMI       D2
000446  8c7c 8000                     OR.w      #$8000,D6
00044a  1019                          MOVE.b    (A1)+,D0
00044c  d040                          ADD.w     D0,D0
00044e  3233 0000                     MOVE.w    $00(A3,D0),D1
000452  4ef3 1000                     JMP       $00(A3,D1)
        op_16:                        ; ld d,n
000456  1b59 0002                     MOVE.b    (A1)+,$0002(A5)
00045a  1019                          MOVE.b    (A1)+,D0
00045c  d040                          ADD.w     D0,D0
00045e  3233 0000                     MOVE.w    $00(A3,D0),D1
000462  4ef3 1000                     JMP       $00(A3,D1)
        op_17:                        ; rla
000466  44c6                          MOVE      D6,ccr
000468  e317                          ROXL.b    #1,D7
00046a  55c6                          SCS       D6
00046c  1019                          MOVE.b    (A1)+,D0
00046e  d040                          ADD.w     D0,D0
000470  3233 0000                     MOVE.w    $00(A3,D0),D1
000474  4ef3 1000                     JMP       $00(A3,D1)
        op_18:                        ; jr d
000478  1219                          MOVE.b    (A1)+,D1
00047a  4881                          EXT.w     D1
00047c  d2c1                          ADDA.w    D1,A1
00047e  1019                          MOVE.b    (A1)+,D0
000480  d040                          ADD.w     D0,D0
000482  3233 0000                     MOVE.w    $00(A3,D0),D1
000486  4ef3 1000                     JMP       $00(A3,D1)
        op_19:                        ; add hl,de
00048a  322d 0002                     MOVE.w    ($0002,a5),D1
00048e  d355                          ADD.w     D1,(A5)
000490  55c6                          SCS       D6
000492  1019                          MOVE.b    (A1)+,D0
000494  d040                          ADD.w     D0,D0
000496  3233 0000                     MOVE.w    $00(A3,D0),D1
00049a  4ef3 1000                     JMP       $00(A3,D1)
        op_1a:                        ; ld a,(de)
00049e  322d 0002                     MOVE.w    ($0002,a5),D1
0004a2  1e36 1800                     MOVE.b    $00(A6,D1.l),D7
0004a6  1019                          MOVE.b    (A1)+,D0
0004a8  d040                          ADD.w     D0,D0
0004aa  3233 0000                     MOVE.w    $00(A3,D0),D1
0004ae  4ef3 1000                     JMP       $00(A3,D1)
        op_1b:                        ; dec de
0004b2  536d 0002                     SUBQ.w    #1,$0002(A5)
0004b6  1019                          MOVE.b    (A1)+,D0
0004b8  d040                          ADD.w     D0,D0
0004ba  3233 0000                     MOVE.w    $00(A3,D0),D1
0004be  4ef3 1000                     JMP       $00(A3,D1)
        op_1c:                        ; inc e
0004c2  522d 0003                     ADDQ.b    #1,$0003(A5)
0004c6  59c5                          SVS       D5
0004c8  57c3                          SEQ       D3
0004ca  5bc2                          SMI       D2
0004cc  122d 0003                     MOVE.b    ($0003,a5),D1
0004d0  c23c 000f                     AND.b     #$000f,D1
0004d4  57c4                          SEQ       D4
0004d6  cc7c 7fff                     AND.w     #$7fff,D6
0004da  1019                          MOVE.b    (A1)+,D0
0004dc  d040                          ADD.w     D0,D0
0004de  3233 0000                     MOVE.w    $00(A3,D0),D1
0004e2  4ef3 1000                     JMP       $00(A3,D1)
        op_1d:                        ; dec e
0004e6  122d 0003                     MOVE.b    ($0003,a5),D1
0004ea  c23c 000f                     AND.b     #$000f,D1
0004ee  57c4                          SEQ       D4
0004f0  532d 0003                     SUBQ.b    #1,$0003(A5)
0004f4  59c5                          SVS       D5
0004f6  57c3                          SEQ       D3
0004f8  5bc2                          SMI       D2
0004fa  8c7c 8000                     OR.w      #$8000,D6
0004fe  1019                          MOVE.b    (A1)+,D0
000500  d040                          ADD.w     D0,D0
000502  3233 0000                     MOVE.w    $00(A3,D0),D1
000506  4ef3 1000                     JMP       $00(A3,D1)
        op_1e:                        ; ld e,n
00050a  1b59 0003                     MOVE.b    (A1)+,$0003(A5)
00050e  1019                          MOVE.b    (A1)+,D0
000510  d040                          ADD.w     D0,D0
000512  3233 0000                     MOVE.w    $00(A3,D0),D1
000516  4ef3 1000                     JMP       $00(A3,D1)
        op_1f:                        ; rra
00051a  44c6                          MOVE      D6,ccr
00051c  e217                          ROXR.b    #1,D7
00051e  55c6                          SCS       D6
000520  1019                          MOVE.b    (A1)+,D0
000522  d040                          ADD.w     D0,D0
000524  3233 0000                     MOVE.w    $00(A3,D0),D1
000528  4ef3 1000                     JMP       $00(A3,D1)
        op_20:                        ; jr nz,d
00052c  4a03                          TST.b     D3
00052e  670e                          BEQ       $0000033e
000530  5289                          ADDQ.l    #1,A1
000532  1019                          MOVE.b    (A1)+,D0
000534  d040                          ADD.w     D0,D0
000536  3233 0000                     MOVE.w    $00(A3,D0),D1
00053a  4ef3 1000                     JMP       $00(A3,D1)
00053e  1219                          MOVE.b    (A1)+,D1
000540  4881                          EXT.w     D1
000542  d2c1                          ADDA.w    D1,A1
000544  1019                          MOVE.b    (A1)+,D0
000546  d040                          ADD.w     D0,D0
000548  3233 0000                     MOVE.w    $00(A3,D0),D1
00054c  4ef3 1000                     JMP       $00(A3,D1)
        op_21:                        ; ld hl,nn
000550  1b59 0001                     MOVE.b    (A1)+,$0001(A5)
000554  1a99                          MOVE.b    (A1)+,(A5)
000556  1019                          MOVE.b    (A1)+,D0
000558  d040                          ADD.w     D0,D0
00055a  3233 0000                     MOVE.w    $00(A3,D0),D1
00055e  4ef3 1000                     JMP       $00(A3,D1)
        op_22:                        ; ld (nn),hl
000562  1019                          MOVE.b    (A1)+,D0
000564  1219                          MOVE.b    (A1)+,D1
000566  e059                          ROR.w     #8,D1
000568  1200                          MOVE.b    D0,D1
00056a  1dad 0001 1800                MOVE.b    ($0001,a5),$00(A6,D1.l)
000570  1d95 1801                     MOVE.b    (A5),$01(A6,D1.l)
000574  1019                          MOVE.b    (A1)+,D0
000576  d040                          ADD.w     D0,D0
000578  3233 0000                     MOVE.w    $00(A3,D0),D1
00057c  4ef3 1000                     JMP       $00(A3,D1)
        op_23:                        ; inc hl
000580  5255                          ADDQ.w    #1,(A5)
000582  1019                          MOVE.b    (A1)+,D0
000584  d040                          ADD.w     D0,D0
000586  3233 0000                     MOVE.w    $00(A3,D0),D1
00058a  4ef3 1000                     JMP       $00(A3,D1)
        op_24:                        ; inc h
00058e  5215                          ADDQ.b    #1,(A5)
000590  59c5                          SVS       D5
000592  57c3                          SEQ       D3
000594  5bc2                          SMI       D2
000596  1215                          MOVE.b    (A5),D1
000598  c23c 000f                     AND.b     #$000f,D1
00059c  57c4                          SEQ       D4
00059e  cc7c 7fff                     AND.w     #$7fff,D6
0005a2  1019                          MOVE.b    (A1)+,D0
0005a4  d040                          ADD.w     D0,D0
0005a6  3233 0000                     MOVE.w    $00(A3,D0),D1
0005aa  4ef3 1000                     JMP       $00(A3,D1)
        op_25:                        ; dec h
0005ae  1215                          MOVE.b    (A5),D1
0005b0  c23c 000f                     AND.b     #$000f,D1
0005b4  57c4                          SEQ       D4
0005b6  5315                          SUBQ.b    #1,(A5)
0005b8  59c5                          SVS       D5
0005ba  57c3                          SEQ       D3
0005bc  5bc2                          SMI       D2
0005be  8c7c 8000                     OR.w      #$8000,D6
0005c2  1019                          MOVE.b    (A1)+,D0
0005c4  d040                          ADD.w     D0,D0
0005c6  3233 0000                     MOVE.w    $00(A3,D0),D1
0005ca  4ef3 1000                     JMP       $00(A3,D1)
        op_26:                        ; ld h,n
0005ce  1a99                          MOVE.b    (A1)+,(A5)
0005d0  1019                          MOVE.b    (A1)+,D0
0005d2  d040                          ADD.w     D0,D0
0005d4  3233 0000                     MOVE.w    $00(A3,D0),D1
0005d8  4ef3 1000                     JMP       $00(A3,D1)
        op_27:                        ; daa
0005dc  1007                          MOVE.b    D7,D0
0005de  c03c 000f                     AND.b     #$000f,D0
0005e2  1207                          MOVE.b    D7,D1
0005e4  c23c 00f0                     AND.b     #$00f0,D1
0005e8  4a46                          TST.w     D6
0005ea  6b32                          BMI       $0000041e
0005ec  b03c 0009                     CMP.b     #$0009,D0
0005f0  6218                          BHI       $0000040a
0005f2  4a04                          TST.b     D4
0005f4  6702                          BEQ       $000003f8
0005f6  5c07                          ADDQ.b    #6,D7
0005f8  b23c 0090                     CMP.b     #$0090,D1
0005fc  6204                          BHI       $00000402
0005fe  4a06                          TST.b     D6
000600  674c                          BEQ       $0000044e
000602  de3c 0060                     ADD.b     #$0060,D7
000606  50c6                          ST        D6
000608  6044                          BRA       $0000044e
00060a  5c07                          ADDQ.b    #6,D7
00060c  b23c 0080                     CMP.b     #$0080,D1
000610  6204                          BHI       $00000416
000612  4a06                          TST.b     D6
000614  6738                          BEQ       $0000044e
000616  de3c 0060                     ADD.b     #$0060,D7
00061a  50c6                          ST        D6
00061c  6030                          BRA       $0000044e
00061e  b03c 0009                     CMP.b     #$0009,D0
000622  6218                          BHI       $0000043c
000624  4a04                          TST.b     D4
000626  6702                          BEQ       $0000042a
000628  5d07                          SUBQ.b    #6,D7
00062a  b23c 0090                     CMP.b     #$0090,D1
00062e  6204                          BHI       $00000434
000630  4a06                          TST.b     D6
000632  671a                          BEQ       $0000044e
000634  9e3c 0060                     SUB.b     #$0060,D7
000638  50c6                          ST        D6
00063a  6012                          BRA       $0000044e
00063c  5d07                          SUBQ.b    #6,D7
00063e  b23c 0080                     CMP.b     #$0080,D1
000642  6204                          BHI       $00000448
000644  4a06                          TST.b     D6
000646  6706                          BEQ       $0000044e
000648  9e3c 0060                     SUB.b     #$0060,D7
00064c  50c6                          ST        D6
00064e  4a07                          TST.b     D7
000650  5bc2                          SMI       D2
000652  57c3                          SEQ       D3
000654  1019                          MOVE.b    (A1)+,D0
000656  d040                          ADD.w     D0,D0
000658  3233 0000                     MOVE.w    $00(A3,D0),D1
00065c  4ef3 1000                     JMP       $00(A3,D1)
        op_28:                        ; jr z,d
000660  4a03                          TST.b     D3
000662  660e                          BNE       $00000472
000664  5289                          ADDQ.l    #1,A1
000666  1019                          MOVE.b    (A1)+,D0
000668  d040                          ADD.w     D0,D0
00066a  3233 0000                     MOVE.w    $00(A3,D0),D1
00066e  4ef3 1000                     JMP       $00(A3,D1)
000672  1219                          MOVE.b    (A1)+,D1
000674  4881                          EXT.w     D1
000676  d2c1                          ADDA.w    D1,A1
000678  1019                          MOVE.b    (A1)+,D0
00067a  d040                          ADD.w     D0,D0
00067c  3233 0000                     MOVE.w    $00(A3,D0),D1
000680  4ef3 1000                     JMP       $00(A3,D1)
        op_29:                        ; add hl,hl
000684  e3d5                          LSL       (A5)
000686  55c6                          SCS       D6
000688  1019                          MOVE.b    (A1)+,D0
00068a  d040                          ADD.w     D0,D0
00068c  3233 0000                     MOVE.w    $00(A3,D0),D1
000690  4ef3 1000                     JMP       $00(A3,D1)
        op_2a:                        ; ld hl,(nn)
000694  1019                          MOVE.b    (A1)+,D0
000696  1219                          MOVE.b    (A1)+,D1
000698  e059                          ROR.w     #8,D1
00069a  1200                          MOVE.b    D0,D1
00069c  1b76 1800 0001                MOVE.b    $01(A6,D0),$0001(A5)
0006a2  1ab6 1801                     MOVE.b    $01(A6,D1.l),(A5)
0006a6  1019                          MOVE.b    (A1)+,D0
0006a8  d040                          ADD.w     D0,D0
0006aa  3233 0000                     MOVE.w    $00(A3,D0),D1
0006ae  4ef3 1000                     JMP       $00(A3,D1)
        op_2b:                        ; dec hl
0006b2  5355                          SUBQ.w    #1,(A5)
0006b4  1019                          MOVE.b    (A1)+,D0
0006b6  d040                          ADD.w     D0,D0
0006b8  3233 0000                     MOVE.w    $00(A3,D0),D1
0006bc  4ef3 1000                     JMP       $00(A3,D1)
        op_2c:                        ; inc l
0006c0  522d 0001                     ADDQ.b    #1,$0001(A5)
0006c4  59c5                          SVS       D5
0006c6  57c3                          SEQ       D3
0006c8  5bc2                          SMI       D2
0006ca  122d 0001                     MOVE.b    ($0001,a5),D1
0006ce  c23c 000f                     AND.b     #$000f,D1
0006d2  57c4                          SEQ       D4
0006d4  cc7c 7fff                     AND.w     #$7fff,D6
0006d8  1019                          MOVE.b    (A1)+,D0
0006da  d040                          ADD.w     D0,D0
0006dc  3233 0000                     MOVE.w    $00(A3,D0),D1
0006e0  4ef3 1000                     JMP       $00(A3,D1)
        op_2d:                        ; dec l
0006e4  122d 0001                     MOVE.b    ($0001,a5),D1
0006e8  c23c 000f                     AND.b     #$000f,D1
0006ec  57c4                          SEQ       D4
0006ee  532d 0001                     SUBQ.b    #1,$0001(A5)
0006f2  59c5                          SVS       D5
0006f4  57c3                          SEQ       D3
0006f6  5bc2                          SMI       D2
0006f8  8c7c 8000                     OR.w      #$8000,D6
0006fc  1019                          MOVE.b    (A1)+,D0
0006fe  d040                          ADD.w     D0,D0
000700  3233 0000                     MOVE.w    $00(A3,D0),D1
000704  4ef3 1000                     JMP       $00(A3,D1)
        op_2e:                        ; ld l,n
000708  1b59 0001                     MOVE.b    (A1)+,$0001(A5)
00070c  1019                          MOVE.b    (A1)+,D0
00070e  d040                          ADD.w     D0,D0
000710  3233 0000                     MOVE.w    $00(A3,D0),D1
000714  4ef3 1000                     JMP       $00(A3,D1)
        op_2f:                        ; cpl
000718  4607                          NOT.b     D7
00071a  78ff                          MOVEQ     #-1,D4
00071c  8c7c 8000                     OR.w      #$8000,D6
000720  1019                          MOVE.b    (A1)+,D0
000722  d040                          ADD.w     D0,D0
000724  3233 0000                     MOVE.w    $00(A3,D0),D1
000728  4ef3 1000                     JMP       $00(A3,D1)
        op_30:                        ; jr nc,d
00072c  4a06                          TST.b     D6
00072e  670e                          BEQ       $0000053e
000730  5289                          ADDQ.l    #1,A1
000732  1019                          MOVE.b    (A1)+,D0
000734  d040                          ADD.w     D0,D0
000736  3233 0000                     MOVE.w    $00(A3,D0),D1
00073a  4ef3 1000                     JMP       $00(A3,D1)
00073e  1219                          MOVE.b    (A1)+,D1
000740  4881                          EXT.w     D1
000742  d2c1                          ADDA.w    D1,A1
000744  1019                          MOVE.b    (A1)+,D0
000746  d040                          ADD.w     D0,D0
000748  3233 0000                     MOVE.w    $00(A3,D0),D1
00074c  4ef3 1000                     JMP       $00(A3,D1)
        op_31:                        ; ld sp,nn
000750  1019                          MOVE.b    (A1)+,D0
000752  1219                          MOVE.b    (A1)+,D1
000754  e059                          ROR.w     #8,D1
000756  1200                          MOVE.b    D0,D1
000758  45f6 1800                     LEA       $00(A6,D1.l),A2
00075c  1019                          MOVE.b    (A1)+,D0
00075e  d040                          ADD.w     D0,D0
000760  3233 0000                     MOVE.w    $00(A3,D0),D1
000764  4ef3 1000                     JMP       $00(A3,D1)
        op_32:                        ; ld (nn),a
000768  1019                          MOVE.b    (A1)+,D0
00076a  1219                          MOVE.b    (A1)+,D1
00076c  e059                          ROR.w     #8,D1
00076e  1200                          MOVE.b    D0,D1
000770  1d87 1800                     MOVE.b    D7,$00(A6,D1.l)
000774  1019                          MOVE.b    (A1)+,D0
000776  d040                          ADD.w     D0,D0
000778  3233 0000                     MOVE.w    $00(A3,D0),D1
00077c  4ef3 1000                     JMP       $00(A3,D1)
        op_33:                        ; inc sp
000780  528a                          ADDQ.l    #1,A2
000782  1019                          MOVE.b    (A1)+,D0
000784  d040                          ADD.w     D0,D0
000786  3233 0000                     MOVE.w    $00(A3,D0),D1
00078a  4ef3 1000                     JMP       $00(A3,D1)
        op_34:                        ; inc (hl)
00078e  3215                          MOVE.w    (A5),D1
000790  5236 1800                     ADDQ.b    #1,$00(A6,D1.l)
000794  59c5                          SVS       D5
000796  57c3                          SEQ       D3
000798  5bc2                          SMI       D2
00079a  1236 1800                     MOVE.b    $00(A6,D1.l),D1
00079e  c23c 000f                     AND.b     #$000f,D1
0007a2  57c4                          SEQ       D4
0007a4  cc7c 7fff                     AND.w     #$7fff,D6
0007a8  1019                          MOVE.b    (A1)+,D0
0007aa  d040                          ADD.w     D0,D0
0007ac  3233 0000                     MOVE.w    $00(A3,D0),D1
0007b0  4ef3 1000                     JMP       $00(A3,D1)
        op_35:                        ; dec (hl)
0007b4  3215                          MOVE.w    (A5),D1
0007b6  1036 1800                     MOVE.b    $00(A6,D1.l),D0
0007ba  c03c 000f                     AND.b     #$000f,D0
0007be  57c4                          SEQ       D4
0007c0  5336 1800                     SUBQ.b    #1,$00(A6,D1.l)
0007c4  59c5                          SVS       D5
0007c6  57c3                          SEQ       D3
0007c8  5bc2                          SMI       D2
0007ca  8c7c 8000                     OR.w      #$8000,D6
0007ce  1019                          MOVE.b    (A1)+,D0
0007d0  d040                          ADD.w     D0,D0
0007d2  3233 0000                     MOVE.w    $00(A3,D0),D1
0007d6  4ef3 1000                     JMP       $00(A3,D1)
        op_36:                        ; ld (hl),n
0007da  3215                          MOVE.w    (A5),D1
0007dc  1d99 1800                     MOVE.b    (A1)+,$00(A6,D1.l)
0007e0  1019                          MOVE.b    (A1)+,D0
0007e2  d040                          ADD.w     D0,D0
0007e4  3233 0000                     MOVE.w    $00(A3,D0),D1
0007e8  4ef3 1000                     JMP       $00(A3,D1)
        op_37:                        ; scf
0007ec  3c3c 00ff                     MOVE.w    #$00ff,D6
0007f0  1019                          MOVE.b    (A1)+,D0
0007f2  d040                          ADD.w     D0,D0
0007f4  3233 0000                     MOVE.w    $00(A3,D0),D1
0007f8  4ef3 1000                     JMP       $00(A3,D1)
        op_38:                        ; jr c,d
0007fc  4a06                          TST.b     D6
0007fe  660e                          BNE       $0000060e
000800  5289                          ADDQ.l    #1,A1
000802  1019                          MOVE.b    (A1)+,D0
000804  d040                          ADD.w     D0,D0
000806  3233 0000                     MOVE.w    $00(A3,D0),D1
00080a  4ef3 1000                     JMP       $00(A3,D1)
00080e  1219                          MOVE.b    (A1)+,D1
000810  4881                          EXT.w     D1
000812  d2c1                          ADDA.w    D1,A1
000814  1019                          MOVE.b    (A1)+,D0
000816  d040                          ADD.w     D0,D0
000818  3233 0000                     MOVE.w    $00(A3,D0),D1
00081c  4ef3 1000                     JMP       $00(A3,D1)
        op_39:                        ; add hl,sp
000820  220a                          MOVE.l    A2,D1
000822  928e                          SUB.l     A6,D1
000824  d355                          ADD.w     D1,(A5)
000826  55c6                          SCS       D6
000828  1019                          MOVE.b    (A1)+,D0
00082a  d040                          ADD.w     D0,D0
00082c  3233 0000                     MOVE.w    $00(A3,D0),D1
000830  4ef3 1000                     JMP       $00(A3,D1)
        op_3a:                        ; ld a,(nn)
000834  1019                          MOVE.b    (A1)+,D0
000836  1219                          MOVE.b    (A1)+,D1
000838  e059                          ROR.w     #8,D1
00083a  1200                          MOVE.b    D0,D1
00083c  1e36 1800                     MOVE.b    $00(A6,D1.l),D7
000840  1019                          MOVE.b    (A1)+,D0
000842  d040                          ADD.w     D0,D0
000844  3233 0000                     MOVE.w    $00(A3,D0),D1
000848  4ef3 1000                     JMP       $00(A3,D1)
        op_3b:                        ; dec sp
00084c  538a                          SUBQ.l    #1,A2
00084e  1019                          MOVE.b    (A1)+,D0
000850  d040                          ADD.w     D0,D0
000852  3233 0000                     MOVE.w    $00(A3,D0),D1
000856  4ef3 1000                     JMP       $00(A3,D1)
        op_3c:                        ; inc a
00085a  5207                          ADDQ.b    #1,D7
00085c  59c5                          SVS       D5
00085e  57c3                          SEQ       D3
000860  5bc2                          SMI       D2
000862  1207                          MOVE.b    D7,D1
000864  c23c 000f                     AND.b     #$000f,D1
000868  57c4                          SEQ       D4
00086a  cc7c 7fff                     AND.w     #$7fff,D6
00086e  1019                          MOVE.b    (A1)+,D0
000870  d040                          ADD.w     D0,D0
000872  3233 0000                     MOVE.w    $00(A3,D0),D1
000876  4ef3 1000                     JMP       $00(A3,D1)
        op_3d:                        ; dec a
00087a  1207                          MOVE.b    D7,D1
00087c  c23c 000f                     AND.b     #$000f,D1
000880  57c4                          SEQ       D4
000882  5307                          SUBQ.b    #1,D7
000884  59c5                          SVS       D5
000886  57c3                          SEQ       D3
000888  5bc2                          SMI       D2
00088a  8c7c 8000                     OR.w      #$8000,D6
00088e  1019                          MOVE.b    (A1)+,D0
000890  d040                          ADD.w     D0,D0
000892  3233 0000                     MOVE.w    $00(A3,D0),D1
000896  4ef3 1000                     JMP       $00(A3,D1)
        op_3e:                        ; ld a,n
00089a  1e19                          MOVE.b    (A1)+,D7
00089c  1019                          MOVE.b    (A1)+,D0
00089e  d040                          ADD.w     D0,D0
0008a0  3233 0000                     MOVE.w    $00(A3,D0),D1
0008a4  4ef3 1000                     JMP       $00(A3,D1)
        op_3f:                        ; ccf
0008a8  4606                          NOT.b     D6
0008aa  1019                          MOVE.b    (A1)+,D0
0008ac  d040                          ADD.w     D0,D0
0008ae  3233 0000                     MOVE.w    $00(A3,D0),D1
0008b2  4ef3 1000                     JMP       $00(A3,D1)
        op_40:                        ; ld b,b
0008b6  1019                          MOVE.b    (A1)+,D0
0008b8  d040                          ADD.w     D0,D0
0008ba  3233 0000                     MOVE.w    $00(A3,D0),D1
0008be  4ef3 1000                     JMP       $00(A3,D1)
        op_41:                        ; ld b,c
0008c2  1b6d 0005 0004                MOVE.b    ($0005,a5),$0004(A5)
0008c8  1019                          MOVE.b    (A1)+,D0
0008ca  d040                          ADD.w     D0,D0
0008cc  3233 0000                     MOVE.w    $00(A3,D0),D1
0008d0  4ef3 1000                     JMP       $00(A3,D1)
        op_42:                        ; ld b,d
0008d4  1b6d 0002 0004                MOVE.b    ($0002,a5),$0004(A5)
0008da  1019                          MOVE.b    (A1)+,D0
0008dc  d040                          ADD.w     D0,D0
0008de  3233 0000                     MOVE.w    $00(A3,D0),D1
0008e2  4ef3 1000                     JMP       $00(A3,D1)
        op_43:                        ; ld b,e
0008e6  1b6d 0003 0004                MOVE.b    ($0003,a5),$0004(A5)
0008ec  1019                          MOVE.b    (A1)+,D0
0008ee  d040                          ADD.w     D0,D0
0008f0  3233 0000                     MOVE.w    $00(A3,D0),D1
0008f4  4ef3 1000                     JMP       $00(A3,D1)
        op_44:                        ; ld b,h
0008f8  1b55 0004                     MOVE.b    (A5),$0004(A5)
0008fc  1019                          MOVE.b    (A1)+,D0
0008fe  d040                          ADD.w     D0,D0
000900  3233 0000                     MOVE.w    $00(A3,D0),D1
000904  4ef3 1000                     JMP       $00(A3,D1)
        op_45:                        ; ld b,l
000908  1b6d 0001 0004                MOVE.b    ($0001,a5),$0004(A5)
00090e  1019                          MOVE.b    (A1)+,D0
000910  d040                          ADD.w     D0,D0
000912  3233 0000                     MOVE.w    $00(A3,D0),D1
000916  4ef3 1000                     JMP       $00(A3,D1)
        op_46:                        ; ld b,(hl)
00091a  3215                          MOVE.w    (A5),D1
00091c  1b76 1800 0004                MOVE.b    $04(A6,D0),$0004(A5)
000922  1019                          MOVE.b    (A1)+,D0
000924  d040                          ADD.w     D0,D0
000926  3233 0000                     MOVE.w    $00(A3,D0),D1
00092a  4ef3 1000                     JMP       $00(A3,D1)
        op_47:                        ; ld b,a
00092e  1b47 0004                     MOVE.b    D7,$0004(A5)
000932  1019                          MOVE.b    (A1)+,D0
000934  d040                          ADD.w     D0,D0
000936  3233 0000                     MOVE.w    $00(A3,D0),D1
00093a  4ef3 1000                     JMP       $00(A3,D1)
        op_48:                        ; ld c,b
00093e  1b6d 0004 0005                MOVE.b    ($0004,a5),$0005(A5)
000944  1019                          MOVE.b    (A1)+,D0
000946  d040                          ADD.w     D0,D0
000948  3233 0000                     MOVE.w    $00(A3,D0),D1
00094c  4ef3 1000                     JMP       $00(A3,D1)
        op_49:                        ; ld c,c
000950  1019                          MOVE.b    (A1)+,D0
000952  d040                          ADD.w     D0,D0
000954  3233 0000                     MOVE.w    $00(A3,D0),D1
000958  4ef3 1000                     JMP       $00(A3,D1)
        op_4a:                        ; ld c,d
00095c  1b6d 0002 0005                MOVE.b    ($0002,a5),$0005(A5)
000962  1019                          MOVE.b    (A1)+,D0
000964  d040                          ADD.w     D0,D0
000966  3233 0000                     MOVE.w    $00(A3,D0),D1
00096a  4ef3 1000                     JMP       $00(A3,D1)
        op_4b:                        ; ld c,e
00096e  1b6d 0003 0005                MOVE.b    ($0003,a5),$0005(A5)
000974  1019                          MOVE.b    (A1)+,D0
000976  d040                          ADD.w     D0,D0
000978  3233 0000                     MOVE.w    $00(A3,D0),D1
00097c  4ef3 1000                     JMP       $00(A3,D1)
        op_4c:                        ; ld c,h
000980  1b55 0005                     MOVE.b    (A5),$0005(A5)
000984  1019                          MOVE.b    (A1)+,D0
000986  d040                          ADD.w     D0,D0
000988  3233 0000                     MOVE.w    $00(A3,D0),D1
00098c  4ef3 1000                     JMP       $00(A3,D1)
        op_4d:                        ; ld c,l
000990  1b6d 0001 0005                MOVE.b    ($0001,a5),$0005(A5)
000996  1019                          MOVE.b    (A1)+,D0
000998  d040                          ADD.w     D0,D0
00099a  3233 0000                     MOVE.w    $00(A3,D0),D1
00099e  4ef3 1000                     JMP       $00(A3,D1)
        op_4e:                        ; ld c,(hl)
0009a2  3215                          MOVE.w    (A5),D1
0009a4  1b76 1800 0005                MOVE.b    $05(A6,D0),$0005(A5)
0009aa  1019                          MOVE.b    (A1)+,D0
0009ac  d040                          ADD.w     D0,D0
0009ae  3233 0000                     MOVE.w    $00(A3,D0),D1
0009b2  4ef3 1000                     JMP       $00(A3,D1)
        op_4f:                        ; ld c,a
0009b6  1b47 0005                     MOVE.b    D7,$0005(A5)
0009ba  1019                          MOVE.b    (A1)+,D0
0009bc  d040                          ADD.w     D0,D0
0009be  3233 0000                     MOVE.w    $00(A3,D0),D1
0009c2  4ef3 1000                     JMP       $00(A3,D1)
        op_50:                        ; ld d,b
0009c6  1b6d 0004 0002                MOVE.b    ($0004,a5),$0002(A5)
0009cc  1019                          MOVE.b    (A1)+,D0
0009ce  d040                          ADD.w     D0,D0
0009d0  3233 0000                     MOVE.w    $00(A3,D0),D1
0009d4  4ef3 1000                     JMP       $00(A3,D1)
        op_51:                        ; ld d,c
0009d8  1b6d 0005 0002                MOVE.b    ($0005,a5),$0002(A5)
0009de  1019                          MOVE.b    (A1)+,D0
0009e0  d040                          ADD.w     D0,D0
0009e2  3233 0000                     MOVE.w    $00(A3,D0),D1
0009e6  4ef3 1000                     JMP       $00(A3,D1)
        op_52:                        ; ld d,d
0009ea  1019                          MOVE.b    (A1)+,D0
0009ec  d040                          ADD.w     D0,D0
0009ee  3233 0000                     MOVE.w    $00(A3,D0),D1
0009f2  4ef3 1000                     JMP       $00(A3,D1)
        op_53:                        ; ld d,e
0009f6  1b6d 0003 0002                MOVE.b    ($0003,a5),$0002(A5)
0009fc  1019                          MOVE.b    (A1)+,D0
0009fe  d040                          ADD.w     D0,D0
000a00  3233 0000                     MOVE.w    $00(A3,D0),D1
000a04  4ef3 1000                     JMP       $00(A3,D1)
        op_54:                        ; ld d,h
000a08  1b55 0002                     MOVE.b    (A5),$0002(A5)
000a0c  1019                          MOVE.b    (A1)+,D0
000a0e  d040                          ADD.w     D0,D0
000a10  3233 0000                     MOVE.w    $00(A3,D0),D1
000a14  4ef3 1000                     JMP       $00(A3,D1)
        op_55:                        ; ld d,l
000a18  1b6d 0001 0002                MOVE.b    ($0001,a5),$0002(A5)
000a1e  1019                          MOVE.b    (A1)+,D0
000a20  d040                          ADD.w     D0,D0
000a22  3233 0000                     MOVE.w    $00(A3,D0),D1
000a26  4ef3 1000                     JMP       $00(A3,D1)
        op_56:                        ; ld d,(hl)
000a2a  3215                          MOVE.w    (A5),D1
000a2c  1b76 1800 0002                MOVE.b    $02(A6,D0),$0002(A5)
000a32  1019                          MOVE.b    (A1)+,D0
000a34  d040                          ADD.w     D0,D0
000a36  3233 0000                     MOVE.w    $00(A3,D0),D1
000a3a  4ef3 1000                     JMP       $00(A3,D1)
        op_57:                        ; ld d,a
000a3e  1b47 0002                     MOVE.b    D7,$0002(A5)
000a42  1019                          MOVE.b    (A1)+,D0
000a44  d040                          ADD.w     D0,D0
000a46  3233 0000                     MOVE.w    $00(A3,D0),D1
000a4a  4ef3 1000                     JMP       $00(A3,D1)
        op_58:                        ; ld e,b
000a4e  1b6d 0004 0003                MOVE.b    ($0004,a5),$0003(A5)
000a54  1019                          MOVE.b    (A1)+,D0
000a56  d040                          ADD.w     D0,D0
000a58  3233 0000                     MOVE.w    $00(A3,D0),D1
000a5c  4ef3 1000                     JMP       $00(A3,D1)
        op_59:                        ; ld e,c
000a60  1b6d 0005 0003                MOVE.b    ($0005,a5),$0003(A5)
000a66  1019                          MOVE.b    (A1)+,D0
000a68  d040                          ADD.w     D0,D0
000a6a  3233 0000                     MOVE.w    $00(A3,D0),D1
000a6e  4ef3 1000                     JMP       $00(A3,D1)
        op_5a:                        ; ld e,d
000a72  1b6d 0002 0003                MOVE.b    ($0002,a5),$0003(A5)
000a78  1019                          MOVE.b    (A1)+,D0
000a7a  d040                          ADD.w     D0,D0
000a7c  3233 0000                     MOVE.w    $00(A3,D0),D1
000a80  4ef3 1000                     JMP       $00(A3,D1)
        op_5b:                        ; ld e,e
000a84  1019                          MOVE.b    (A1)+,D0
000a86  d040                          ADD.w     D0,D0
000a88  3233 0000                     MOVE.w    $00(A3,D0),D1
000a8c  4ef3 1000                     JMP       $00(A3,D1)
        op_5c:                        ; ld e,h
000a90  1b55 0003                     MOVE.b    (A5),$0003(A5)
000a94  1019                          MOVE.b    (A1)+,D0
000a96  d040                          ADD.w     D0,D0
000a98  3233 0000                     MOVE.w    $00(A3,D0),D1
000a9c  4ef3 1000                     JMP       $00(A3,D1)
        op_5d:                        ; ld e,l
000aa0  1b6d 0001 0003                MOVE.b    ($0001,a5),$0003(A5)
000aa6  1019                          MOVE.b    (A1)+,D0
000aa8  d040                          ADD.w     D0,D0
000aaa  3233 0000                     MOVE.w    $00(A3,D0),D1
000aae  4ef3 1000                     JMP       $00(A3,D1)
        op_5e:                        ; ld e,(hl)
000ab2  3215                          MOVE.w    (A5),D1
000ab4  1b76 1800 0003                MOVE.b    $03(A6,D0),$0003(A5)
000aba  1019                          MOVE.b    (A1)+,D0
000abc  d040                          ADD.w     D0,D0
000abe  3233 0000                     MOVE.w    $00(A3,D0),D1
000ac2  4ef3 1000                     JMP       $00(A3,D1)
        op_5f:                        ; ld e,a
000ac6  1b47 0003                     MOVE.b    D7,$0003(A5)
000aca  1019                          MOVE.b    (A1)+,D0
000acc  d040                          ADD.w     D0,D0
000ace  3233 0000                     MOVE.w    $00(A3,D0),D1
000ad2  4ef3 1000                     JMP       $00(A3,D1)
        op_60:                        ; ld h,b
000ad6  1aad 0004                     MOVE.b    ($0004,a5),(A5)
000ada  1019                          MOVE.b    (A1)+,D0
000adc  d040                          ADD.w     D0,D0
000ade  3233 0000                     MOVE.w    $00(A3,D0),D1
000ae2  4ef3 1000                     JMP       $00(A3,D1)
        op_61:                        ; ld h,c
000ae6  1aad 0005                     MOVE.b    ($0005,a5),(A5)
000aea  1019                          MOVE.b    (A1)+,D0
000aec  d040                          ADD.w     D0,D0
000aee  3233 0000                     MOVE.w    $00(A3,D0),D1
000af2  4ef3 1000                     JMP       $00(A3,D1)
        op_62:                        ; ld h,d
000af6  1aad 0002                     MOVE.b    ($0002,a5),(A5)
000afa  1019                          MOVE.b    (A1)+,D0
000afc  d040                          ADD.w     D0,D0
000afe  3233 0000                     MOVE.w    $00(A3,D0),D1
000b02  4ef3 1000                     JMP       $00(A3,D1)
        op_63:                        ; ld h,e
000b06  1aad 0003                     MOVE.b    ($0003,a5),(A5)
000b0a  1019                          MOVE.b    (A1)+,D0
000b0c  d040                          ADD.w     D0,D0
000b0e  3233 0000                     MOVE.w    $00(A3,D0),D1
000b12  4ef3 1000                     JMP       $00(A3,D1)
        op_64:                        ; ld h,h
000b16  1019                          MOVE.b    (A1)+,D0
000b18  d040                          ADD.w     D0,D0
000b1a  3233 0000                     MOVE.w    $00(A3,D0),D1
000b1e  4ef3 1000                     JMP       $00(A3,D1)
        op_65:                        ; ld h,l
000b22  1aad 0001                     MOVE.b    ($0001,a5),(A5)
000b26  1019                          MOVE.b    (A1)+,D0
000b28  d040                          ADD.w     D0,D0
000b2a  3233 0000                     MOVE.w    $00(A3,D0),D1
000b2e  4ef3 1000                     JMP       $00(A3,D1)
        op_66:                        ; ld h,(hl)
000b32  3215                          MOVE.w    (A5),D1
000b34  1ab6 1800                     MOVE.b    $00(A6,D1.l),(A5)
000b38  1019                          MOVE.b    (A1)+,D0
000b3a  d040                          ADD.w     D0,D0
000b3c  3233 0000                     MOVE.w    $00(A3,D0),D1
000b40  4ef3 1000                     JMP       $00(A3,D1)
        op_67:                        ; ld h,a
000b44  1a87                          MOVE.b    D7,(A5)
000b46  1019                          MOVE.b    (A1)+,D0
000b48  d040                          ADD.w     D0,D0
000b4a  3233 0000                     MOVE.w    $00(A3,D0),D1
000b4e  4ef3 1000                     JMP       $00(A3,D1)
        op_68:                        ; ld l,b
000b52  1b6d 0004 0001                MOVE.b    ($0004,a5),$0001(A5)
000b58  1019                          MOVE.b    (A1)+,D0
000b5a  d040                          ADD.w     D0,D0
000b5c  3233 0000                     MOVE.w    $00(A3,D0),D1
000b60  4ef3 1000                     JMP       $00(A3,D1)
        op_69:                        ; ld l,c
000b64  1b6d 0005 0001                MOVE.b    ($0005,a5),$0001(A5)
000b6a  1019                          MOVE.b    (A1)+,D0
000b6c  d040                          ADD.w     D0,D0
000b6e  3233 0000                     MOVE.w    $00(A3,D0),D1
000b72  4ef3 1000                     JMP       $00(A3,D1)
        op_6a:                        ; ld l,d
000b76  1b6d 0002 0001                MOVE.b    ($0002,a5),$0001(A5)
000b7c  1019                          MOVE.b    (A1)+,D0
000b7e  d040                          ADD.w     D0,D0
000b80  3233 0000                     MOVE.w    $00(A3,D0),D1
000b84  4ef3 1000                     JMP       $00(A3,D1)
        op_6b:                        ; ld l,e
000b88  1b6d 0003 0001                MOVE.b    ($0003,a5),$0001(A5)
000b8e  1019                          MOVE.b    (A1)+,D0
000b90  d040                          ADD.w     D0,D0
000b92  3233 0000                     MOVE.w    $00(A3,D0),D1
000b96  4ef3 1000                     JMP       $00(A3,D1)
        op_6c:                        ; ld l,h
000b9a  1b55 0001                     MOVE.b    (A5),$0001(A5)
000b9e  1019                          MOVE.b    (A1)+,D0
000ba0  d040                          ADD.w     D0,D0
000ba2  3233 0000                     MOVE.w    $00(A3,D0),D1
000ba6  4ef3 1000                     JMP       $00(A3,D1)
        op_6d:                        ; ld l,l
000baa  1019                          MOVE.b    (A1)+,D0
000bac  d040                          ADD.w     D0,D0
000bae  3233 0000                     MOVE.w    $00(A3,D0),D1
000bb2  4ef3 1000                     JMP       $00(A3,D1)
        op_6e:                        ; ld l,(hl)
000bb6  3215                          MOVE.w    (A5),D1
000bb8  1b76 1800 0001                MOVE.b    $01(A6,D0),$0001(A5)
000bbe  1019                          MOVE.b    (A1)+,D0
000bc0  d040                          ADD.w     D0,D0
000bc2  3233 0000                     MOVE.w    $00(A3,D0),D1
000bc6  4ef3 1000                     JMP       $00(A3,D1)
        op_6f:                        ; ld l,a
000bca  1b47 0001                     MOVE.b    D7,$0001(A5)
000bce  1019                          MOVE.b    (A1)+,D0
000bd0  d040                          ADD.w     D0,D0
000bd2  3233 0000                     MOVE.w    $00(A3,D0),D1
000bd6  4ef3 1000                     JMP       $00(A3,D1)
        op_70:                        ; ld (hl),b
000bda  3215                          MOVE.w    (A5),D1
000bdc  1dad 0004 1800                MOVE.b    ($0004,a5),$00(A6,D1.l)
000be2  1019                          MOVE.b    (A1)+,D0
000be4  d040                          ADD.w     D0,D0
000be6  3233 0000                     MOVE.w    $00(A3,D0),D1
000bea  4ef3 1000                     JMP       $00(A3,D1)
        op_71:                        ; ld (hl),c
000bee  3215                          MOVE.w    (A5),D1
000bf0  1dad 0005 1800                MOVE.b    ($0005,a5),$00(A6,D1.l)
000bf6  1019                          MOVE.b    (A1)+,D0
000bf8  d040                          ADD.w     D0,D0
000bfa  3233 0000                     MOVE.w    $00(A3,D0),D1
000bfe  4ef3 1000                     JMP       $00(A3,D1)
        op_72:                        ; ld (hl),d
000c02  3215                          MOVE.w    (A5),D1
000c04  1dad 0002 1800                MOVE.b    ($0002,a5),$00(A6,D1.l)
000c0a  1019                          MOVE.b    (A1)+,D0
000c0c  d040                          ADD.w     D0,D0
000c0e  3233 0000                     MOVE.w    $00(A3,D0),D1
000c12  4ef3 1000                     JMP       $00(A3,D1)
        op_73:                        ; ld (hl),e
000c16  3215                          MOVE.w    (A5),D1
000c18  1dad 0003 1800                MOVE.b    ($0003,a5),$00(A6,D1.l)
000c1e  1019                          MOVE.b    (A1)+,D0
000c20  d040                          ADD.w     D0,D0
000c22  3233 0000                     MOVE.w    $00(A3,D0),D1
000c26  4ef3 1000                     JMP       $00(A3,D1)
        op_74:                        ; ld (hl),h
000c2a  3215                          MOVE.w    (A5),D1
000c2c  1d95 1800                     MOVE.b    (A5),$00(A6,D1.l)
000c30  1019                          MOVE.b    (A1)+,D0
000c32  d040                          ADD.w     D0,D0
000c34  3233 0000                     MOVE.w    $00(A3,D0),D1
000c38  4ef3 1000                     JMP       $00(A3,D1)
        op_75:                        ; ld (hl),l
000c3c  3215                          MOVE.w    (A5),D1
000c3e  1dad 0001 1800                MOVE.b    ($0001,a5),$00(A6,D1.l)
000c44  1019                          MOVE.b    (A1)+,D0
000c46  d040                          ADD.w     D0,D0
000c48  3233 0000                     MOVE.w    $00(A3,D0),D1
000c4c  4ef3 1000                     JMP       $00(A3,D1)
        op_76:                        ; halt
000c50  1019                          MOVE.b    (A1)+,D0
000c52  d040                          ADD.w     D0,D0
000c54  d040                          ADD.w     D0,D0
000c56  2075 0038                     MOVEA.l   $38(A5,D0),A0
000c5a  48e7 007e                     MOVEM.l   A6/A5/A4/A3/A2/A1,-(A7)
000c5e  4e90                          JSR       (A0)
000c60  4cdf 7e00                     MOVEM.l   (A7)+,A1/A2/A3/A4/A5/A6
000c64  ce7c 00ff                     AND.w     #$00ff,D7
000c68  7200                          MOVEQ     #0,D1
000c6a  4240                          CLR.w     D0
000c6c  1019                          MOVE.b    (A1)+,D0
000c6e  d040                          ADD.w     D0,D0
000c70  3233 0000                     MOVE.w    $00(A3,D0),D1
000c74  4ef3 1000                     JMP       $00(A3,D1)
        op_77:                        ; ld (hl),a
000c78  3215                          MOVE.w    (A5),D1
000c7a  1d87 1800                     MOVE.b    D7,$00(A6,D1.l)
000c7e  1019                          MOVE.b    (A1)+,D0
000c80  d040                          ADD.w     D0,D0
000c82  3233 0000                     MOVE.w    $00(A3,D0),D1
000c86  4ef3 1000                     JMP       $00(A3,D1)
        op_78:                        ; ld a,b
000c8a  1e2d 0004                     MOVE.b    ($0004,a5),D7
000c8e  1019                          MOVE.b    (A1)+,D0
000c90  d040                          ADD.w     D0,D0
000c92  3233 0000                     MOVE.w    $00(A3,D0),D1
000c96  4ef3 1000                     JMP       $00(A3,D1)
        op_79:                        ; ld a,c
000c9a  1e2d 0005                     MOVE.b    ($0005,a5),D7
000c9e  1019                          MOVE.b    (A1)+,D0
000ca0  d040                          ADD.w     D0,D0
000ca2  3233 0000                     MOVE.w    $00(A3,D0),D1
000ca6  4ef3 1000                     JMP       $00(A3,D1)
        op_7a:                        ; ld a,d
000caa  1e2d 0002                     MOVE.b    ($0002,a5),D7
000cae  1019                          MOVE.b    (A1)+,D0
000cb0  d040                          ADD.w     D0,D0
000cb2  3233 0000                     MOVE.w    $00(A3,D0),D1
000cb6  4ef3 1000                     JMP       $00(A3,D1)
        op_7b:                        ; ld a,e
000cba  1e2d 0003                     MOVE.b    ($0003,a5),D7
000cbe  1019                          MOVE.b    (A1)+,D0
000cc0  d040                          ADD.w     D0,D0
000cc2  3233 0000                     MOVE.w    $00(A3,D0),D1
000cc6  4ef3 1000                     JMP       $00(A3,D1)
        op_7c:                        ; ld a,h
000cca  1e15                          MOVE.b    (A5),D7
000ccc  1019                          MOVE.b    (A1)+,D0
000cce  d040                          ADD.w     D0,D0
000cd0  3233 0000                     MOVE.w    $00(A3,D0),D1
000cd4  4ef3 1000                     JMP       $00(A3,D1)
        op_7d:                        ; ld a,l
000cd8  1e2d 0001                     MOVE.b    ($0001,a5),D7
000cdc  1019                          MOVE.b    (A1)+,D0
000cde  d040                          ADD.w     D0,D0
000ce0  3233 0000                     MOVE.w    $00(A3,D0),D1
000ce4  4ef3 1000                     JMP       $00(A3,D1)
        op_7e:                        ; ld a,(hl)
000ce8  3215                          MOVE.w    (A5),D1
000cea  1e36 1800                     MOVE.b    $00(A6,D1.l),D7
000cee  1019                          MOVE.b    (A1)+,D0
000cf0  d040                          ADD.w     D0,D0
000cf2  3233 0000                     MOVE.w    $00(A3,D0),D1
000cf6  4ef3 1000                     JMP       $00(A3,D1)
        op_7f:                        ; ld a,a
000cfa  1019                          MOVE.b    (A1)+,D0
000cfc  d040                          ADD.w     D0,D0
000cfe  3233 0000                     MOVE.w    $00(A3,D0),D1
000d02  4ef3 1000                     JMP       $00(A3,D1)
        op_80:                        ; add a,b
000d06  1007                          MOVE.b    D7,D0
000d08  122d 0004                     MOVE.b    ($0004,a5),D1
000d0c  de01                          ADD.b     D1,D7
000d0e  5bc2                          SMI       D2
000d10  57c3                          SEQ       D3
000d12  59c5                          SVS       D5
000d14  55c6                          SCS       D6
000d16  803c 00f0                     OR.b      #$00f0,D0
000d1a  c23c 000f                     AND.b     #$000f,D1
000d1e  d001                          ADD.b     D1,D0
000d20  55c4                          SCS       D4
000d22  cc7c 7fff                     AND.w     #$7fff,D6
000d26  4240                          CLR.w     D0
000d28  1019                          MOVE.b    (A1)+,D0
000d2a  d040                          ADD.w     D0,D0
000d2c  3233 0000                     MOVE.w    $00(A3,D0),D1
000d30  4ef3 1000                     JMP       $00(A3,D1)
        op_81:                        ; add a,c
000d34  1007                          MOVE.b    D7,D0
000d36  122d 0005                     MOVE.b    ($0005,a5),D1
000d3a  de01                          ADD.b     D1,D7
000d3c  5bc2                          SMI       D2
000d3e  57c3                          SEQ       D3
000d40  59c5                          SVS       D5
000d42  55c6                          SCS       D6
000d44  803c 00f0                     OR.b      #$00f0,D0
000d48  c23c 000f                     AND.b     #$000f,D1
000d4c  d001                          ADD.b     D1,D0
000d4e  55c4                          SCS       D4
000d50  cc7c 7fff                     AND.w     #$7fff,D6
000d54  4240                          CLR.w     D0
000d56  1019                          MOVE.b    (A1)+,D0
000d58  d040                          ADD.w     D0,D0
000d5a  3233 0000                     MOVE.w    $00(A3,D0),D1
000d5e  4ef3 1000                     JMP       $00(A3,D1)
        op_82:                        ; add a,d
000d62  1007                          MOVE.b    D7,D0
000d64  122d 0002                     MOVE.b    ($0002,a5),D1
000d68  de01                          ADD.b     D1,D7
000d6a  5bc2                          SMI       D2
000d6c  57c3                          SEQ       D3
000d6e  59c5                          SVS       D5
000d70  55c6                          SCS       D6
000d72  803c 00f0                     OR.b      #$00f0,D0
000d76  c23c 000f                     AND.b     #$000f,D1
000d7a  d001                          ADD.b     D1,D0
000d7c  55c4                          SCS       D4
000d7e  cc7c 7fff                     AND.w     #$7fff,D6
000d82  4240                          CLR.w     D0
000d84  1019                          MOVE.b    (A1)+,D0
000d86  d040                          ADD.w     D0,D0
000d88  3233 0000                     MOVE.w    $00(A3,D0),D1
000d8c  4ef3 1000                     JMP       $00(A3,D1)
        op_83:                        ; add a,e
000d90  1007                          MOVE.b    D7,D0
000d92  122d 0003                     MOVE.b    ($0003,a5),D1
000d96  de01                          ADD.b     D1,D7
000d98  5bc2                          SMI       D2
000d9a  57c3                          SEQ       D3
000d9c  59c5                          SVS       D5
000d9e  55c6                          SCS       D6
000da0  803c 00f0                     OR.b      #$00f0,D0
000da4  c23c 000f                     AND.b     #$000f,D1
000da8  d001                          ADD.b     D1,D0
000daa  55c4                          SCS       D4
000dac  cc7c 7fff                     AND.w     #$7fff,D6
000db0  4240                          CLR.w     D0
000db2  1019                          MOVE.b    (A1)+,D0
000db4  d040                          ADD.w     D0,D0
000db6  3233 0000                     MOVE.w    $00(A3,D0),D1
000dba  4ef3 1000                     JMP       $00(A3,D1)
        op_84:                        ; add a,h
000dbe  1007                          MOVE.b    D7,D0
000dc0  1215                          MOVE.b    (A5),D1
000dc2  de01                          ADD.b     D1,D7
000dc4  5bc2                          SMI       D2
000dc6  57c3                          SEQ       D3
000dc8  59c5                          SVS       D5
000dca  55c6                          SCS       D6
000dcc  803c 00f0                     OR.b      #$00f0,D0
000dd0  c23c 000f                     AND.b     #$000f,D1
000dd4  d001                          ADD.b     D1,D0
000dd6  55c4                          SCS       D4
000dd8  cc7c 7fff                     AND.w     #$7fff,D6
000ddc  4240                          CLR.w     D0
000dde  1019                          MOVE.b    (A1)+,D0
000de0  d040                          ADD.w     D0,D0
000de2  3233 0000                     MOVE.w    $00(A3,D0),D1
000de6  4ef3 1000                     JMP       $00(A3,D1)
        op_85:                        ; add a,l
000dea  1007                          MOVE.b    D7,D0
000dec  122d 0001                     MOVE.b    ($0001,a5),D1
000df0  de01                          ADD.b     D1,D7
000df2  5bc2                          SMI       D2
000df4  57c3                          SEQ       D3
000df6  59c5                          SVS       D5
000df8  55c6                          SCS       D6
000dfa  803c 00f0                     OR.b      #$00f0,D0
000dfe  c23c 000f                     AND.b     #$000f,D1
000e02  d001                          ADD.b     D1,D0
000e04  55c4                          SCS       D4
000e06  cc7c 7fff                     AND.w     #$7fff,D6
000e0a  4240                          CLR.w     D0
000e0c  1019                          MOVE.b    (A1)+,D0
000e0e  d040                          ADD.w     D0,D0
000e10  3233 0000                     MOVE.w    $00(A3,D0),D1
000e14  4ef3 1000                     JMP       $00(A3,D1)
        op_86:                        ; add a,(hl)
000e18  1007                          MOVE.b    D7,D0
000e1a  3215                          MOVE.w    (A5),D1
000e1c  1236 1800                     MOVE.b    $00(A6,D1.l),D1
000e20  de01                          ADD.b     D1,D7
000e22  5bc2                          SMI       D2
000e24  57c3                          SEQ       D3
000e26  59c5                          SVS       D5
000e28  55c6                          SCS       D6
000e2a  803c 00f0                     OR.b      #$00f0,D0
000e2e  c23c 000f                     AND.b     #$000f,D1
000e32  d001                          ADD.b     D1,D0
000e34  55c4                          SCS       D4
000e36  cc7c 7fff                     AND.w     #$7fff,D6
000e3a  4240                          CLR.w     D0
000e3c  1019                          MOVE.b    (A1)+,D0
000e3e  d040                          ADD.w     D0,D0
000e40  3233 0000                     MOVE.w    $00(A3,D0),D1
000e44  4ef3 1000                     JMP       $00(A3,D1)
        op_87:                        ; add a,a
000e48  0807 0003                     BTST      #$03,D7
000e4c  56c4                          SNE       D4
000e4e  de07                          ADD.b     D7,D7
000e50  5bc2                          SMI       D2
000e52  57c3                          SEQ       D3
000e54  59c5                          SVS       D5
000e56  55c6                          SCS       D6
000e58  cc7c 7fff                     AND.w     #$7fff,D6
000e5c  4240                          CLR.w     D0
000e5e  1019                          MOVE.b    (A1)+,D0
000e60  d040                          ADD.w     D0,D0
000e62  3233 0000                     MOVE.w    $00(A3,D0),D1
000e66  4ef3 1000                     JMP       $00(A3,D1)
        op_88:                        ; adc a,b
000e6a  1007                          MOVE.b    D7,D0
000e6c  122d 0004                     MOVE.b    ($0004,a5),D1
000e70  1806                          MOVE.b    D6,D4
000e72  44c4                          MOVE      D4,ccr
000e74  df01                          ADDX.b    D1,D7
000e76  5bc2                          SMI       D2
000e78  59c5                          SVS       D5
000e7a  55c6                          SCS       D6
000e7c  4a07                          TST.b     D7
000e7e  57c3                          SEQ       D3
000e80  803c 00f0                     OR.b      #$00f0,D0
000e84  c23c 000f                     AND.b     #$000f,D1
000e88  44c4                          MOVE      D4,ccr
000e8a  d101                          ADDX.b    D1,D0
000e8c  55c4                          SCS       D4
000e8e  cc7c 7fff                     AND.w     #$7fff,D6
000e92  4240                          CLR.w     D0
000e94  1019                          MOVE.b    (A1)+,D0
000e96  d040                          ADD.w     D0,D0
000e98  3233 0000                     MOVE.w    $00(A3,D0),D1
000e9c  4ef3 1000                     JMP       $00(A3,D1)
        op_89:                        ; adc a,c
000ea0  1007                          MOVE.b    D7,D0
000ea2  122d 0005                     MOVE.b    ($0005,a5),D1
000ea6  1806                          MOVE.b    D6,D4
000ea8  44c4                          MOVE      D4,ccr
000eaa  df01                          ADDX.b    D1,D7
000eac  5bc2                          SMI       D2
000eae  59c5                          SVS       D5
000eb0  55c6                          SCS       D6
000eb2  4a07                          TST.b     D7
000eb4  57c3                          SEQ       D3
000eb6  803c 00f0                     OR.b      #$00f0,D0
000eba  c23c 000f                     AND.b     #$000f,D1
000ebe  44c4                          MOVE      D4,ccr
000ec0  d101                          ADDX.b    D1,D0
000ec2  55c4                          SCS       D4
000ec4  cc7c 7fff                     AND.w     #$7fff,D6
000ec8  4240                          CLR.w     D0
000eca  1019                          MOVE.b    (A1)+,D0
000ecc  d040                          ADD.w     D0,D0
000ece  3233 0000                     MOVE.w    $00(A3,D0),D1
000ed2  4ef3 1000                     JMP       $00(A3,D1)
        op_8a:                        ; adc a,d
000ed6  1007                          MOVE.b    D7,D0
000ed8  122d 0002                     MOVE.b    ($0002,a5),D1
000edc  1806                          MOVE.b    D6,D4
000ede  44c4                          MOVE      D4,ccr
000ee0  df01                          ADDX.b    D1,D7
000ee2  5bc2                          SMI       D2
000ee4  59c5                          SVS       D5
000ee6  55c6                          SCS       D6
000ee8  4a07                          TST.b     D7
000eea  57c3                          SEQ       D3
000eec  803c 00f0                     OR.b      #$00f0,D0
000ef0  c23c 000f                     AND.b     #$000f,D1
000ef4  44c4                          MOVE      D4,ccr
000ef6  d101                          ADDX.b    D1,D0
000ef8  55c4                          SCS       D4
000efa  cc7c 7fff                     AND.w     #$7fff,D6
000efe  4240                          CLR.w     D0
000f00  1019                          MOVE.b    (A1)+,D0
000f02  d040                          ADD.w     D0,D0
000f04  3233 0000                     MOVE.w    $00(A3,D0),D1
000f08  4ef3 1000                     JMP       $00(A3,D1)
        op_8b:                        ; adc a,e
000f0c  1007                          MOVE.b    D7,D0
000f0e  122d 0003                     MOVE.b    ($0003,a5),D1
000f12  1806                          MOVE.b    D6,D4
000f14  44c4                          MOVE      D4,ccr
000f16  df01                          ADDX.b    D1,D7
000f18  5bc2                          SMI       D2
000f1a  59c5                          SVS       D5
000f1c  55c6                          SCS       D6
000f1e  4a07                          TST.b     D7
000f20  57c3                          SEQ       D3
000f22  803c 00f0                     OR.b      #$00f0,D0
000f26  c23c 000f                     AND.b     #$000f,D1
000f2a  44c4                          MOVE      D4,ccr
000f2c  d101                          ADDX.b    D1,D0
000f2e  55c4                          SCS       D4
000f30  cc7c 7fff                     AND.w     #$7fff,D6
000f34  4240                          CLR.w     D0
000f36  1019                          MOVE.b    (A1)+,D0
000f38  d040                          ADD.w     D0,D0
000f3a  3233 0000                     MOVE.w    $00(A3,D0),D1
000f3e  4ef3 1000                     JMP       $00(A3,D1)
        op_8c:                        ; adc a,h
000f42  1007                          MOVE.b    D7,D0
000f44  1215                          MOVE.b    (A5),D1
000f46  1806                          MOVE.b    D6,D4
000f48  44c4                          MOVE      D4,ccr
000f4a  df01                          ADDX.b    D1,D7
000f4c  5bc2                          SMI       D2
000f4e  59c5                          SVS       D5
000f50  55c6                          SCS       D6
000f52  4a07                          TST.b     D7
000f54  57c3                          SEQ       D3
000f56  803c 00f0                     OR.b      #$00f0,D0
000f5a  c23c 000f                     AND.b     #$000f,D1
000f5e  44c4                          MOVE      D4,ccr
000f60  d101                          ADDX.b    D1,D0
000f62  55c4                          SCS       D4
000f64  cc7c 7fff                     AND.w     #$7fff,D6
000f68  4240                          CLR.w     D0
000f6a  1019                          MOVE.b    (A1)+,D0
000f6c  d040                          ADD.w     D0,D0
000f6e  3233 0000                     MOVE.w    $00(A3,D0),D1
000f72  4ef3 1000                     JMP       $00(A3,D1)
        op_8d:                        ; adc a,l
000f76  1007                          MOVE.b    D7,D0
000f78  122d 0001                     MOVE.b    ($0001,a5),D1
000f7c  1806                          MOVE.b    D6,D4
000f7e  44c4                          MOVE      D4,ccr
000f80  df01                          ADDX.b    D1,D7
000f82  5bc2                          SMI       D2
000f84  59c5                          SVS       D5
000f86  55c6                          SCS       D6
000f88  4a07                          TST.b     D7
000f8a  57c3                          SEQ       D3
000f8c  803c 00f0                     OR.b      #$00f0,D0
000f90  c23c 000f                     AND.b     #$000f,D1
000f94  44c4                          MOVE      D4,ccr
000f96  d101                          ADDX.b    D1,D0
000f98  55c4                          SCS       D4
000f9a  cc7c 7fff                     AND.w     #$7fff,D6
000f9e  4240                          CLR.w     D0
000fa0  1019                          MOVE.b    (A1)+,D0
000fa2  d040                          ADD.w     D0,D0
000fa4  3233 0000                     MOVE.w    $00(A3,D0),D1
000fa8  4ef3 1000                     JMP       $00(A3,D1)
        op_8e:                        ; adc a,(hl)
000fac  1007                          MOVE.b    D7,D0
000fae  3215                          MOVE.w    (A5),D1
000fb0  1236 1800                     MOVE.b    $00(A6,D1.l),D1
000fb4  1806                          MOVE.b    D6,D4
000fb6  44c4                          MOVE      D4,ccr
000fb8  df01                          ADDX.b    D1,D7
000fba  5bc2                          SMI       D2
000fbc  59c5                          SVS       D5
000fbe  55c6                          SCS       D6
000fc0  4a07                          TST.b     D7
000fc2  57c3                          SEQ       D3
000fc4  803c 00f0                     OR.b      #$00f0,D0
000fc8  c23c 000f                     AND.b     #$000f,D1
000fcc  44c4                          MOVE      D4,ccr
000fce  d101                          ADDX.b    D1,D0
000fd0  55c4                          SCS       D4
000fd2  cc7c 7fff                     AND.w     #$7fff,D6
000fd6  4240                          CLR.w     D0
000fd8  1019                          MOVE.b    (A1)+,D0
000fda  d040                          ADD.w     D0,D0
000fdc  3233 0000                     MOVE.w    $00(A3,D0),D1
000fe0  4ef3 1000                     JMP       $00(A3,D1)
        op_8f:                        ; adc a,a
000fe4  44c6                          MOVE      D6,ccr
000fe6  df07                          ADDX.b    D7,D7
000fe8  5bc2                          SMI       D2
000fea  59c5                          SVS       D5
000fec  55c6                          SCS       D6
000fee  4a07                          TST.b     D7
000ff0  57c3                          SEQ       D3
000ff2  0807 0004                     BTST      #$04,D7
000ff6  56c4                          SNE       D4
000ff8  cc7c 7fff                     AND.w     #$7fff,D6
000ffc  4240                          CLR.w     D0
000ffe  1019                          MOVE.b    (A1)+,D0
001000  d040                          ADD.w     D0,D0
001002  3233 0000                     MOVE.w    $00(A3,D0),D1
001006  4ef3 1000                     JMP       $00(A3,D1)
        op_90:                        ; sub b
00100a  1007                          MOVE.b    D7,D0
00100c  122d 0004                     MOVE.b    ($0004,a5),D1
001010  9e01                          SUB.b     D1,D7
001012  5bc2                          SMI       D2
001014  57c3                          SEQ       D3
001016  59c5                          SVS       D5
001018  55c6                          SCS       D6
00101a  c03c 000f                     AND.b     #$000f,D0
00101e  c23c 000f                     AND.b     #$000f,D1
001022  9001                          SUB.b     D1,D0
001024  55c4                          SCS       D4
001026  8c7c 8000                     OR.w      #$8000,D6
00102a  4240                          CLR.w     D0
00102c  1019                          MOVE.b    (A1)+,D0
00102e  d040                          ADD.w     D0,D0
001030  3233 0000                     MOVE.w    $00(A3,D0),D1
001034  4ef3 1000                     JMP       $00(A3,D1)
        op_91:                        ; sub c
001038  1007                          MOVE.b    D7,D0
00103a  122d 0005                     MOVE.b    ($0005,a5),D1
00103e  9e01                          SUB.b     D1,D7
001040  5bc2                          SMI       D2
001042  57c3                          SEQ       D3
001044  59c5                          SVS       D5
001046  55c6                          SCS       D6
001048  c03c 000f                     AND.b     #$000f,D0
00104c  c23c 000f                     AND.b     #$000f,D1
001050  9001                          SUB.b     D1,D0
001052  55c4                          SCS       D4
001054  8c7c 8000                     OR.w      #$8000,D6
001058  4240                          CLR.w     D0
00105a  1019                          MOVE.b    (A1)+,D0
00105c  d040                          ADD.w     D0,D0
00105e  3233 0000                     MOVE.w    $00(A3,D0),D1
001062  4ef3 1000                     JMP       $00(A3,D1)
        op_92:                        ; sub d
001066  1007                          MOVE.b    D7,D0
001068  122d 0002                     MOVE.b    ($0002,a5),D1
00106c  9e01                          SUB.b     D1,D7
00106e  5bc2                          SMI       D2
001070  57c3                          SEQ       D3
001072  59c5                          SVS       D5
001074  55c6                          SCS       D6
001076  c03c 000f                     AND.b     #$000f,D0
00107a  c23c 000f                     AND.b     #$000f,D1
00107e  9001                          SUB.b     D1,D0
001080  55c4                          SCS       D4
001082  8c7c 8000                     OR.w      #$8000,D6
001086  4240                          CLR.w     D0
001088  1019                          MOVE.b    (A1)+,D0
00108a  d040                          ADD.w     D0,D0
00108c  3233 0000                     MOVE.w    $00(A3,D0),D1
001090  4ef3 1000                     JMP       $00(A3,D1)
        op_93:                        ; sub e
001094  1007                          MOVE.b    D7,D0
001096  122d 0003                     MOVE.b    ($0003,a5),D1
00109a  9e01                          SUB.b     D1,D7
00109c  5bc2                          SMI       D2
00109e  57c3                          SEQ       D3
0010a0  59c5                          SVS       D5
0010a2  55c6                          SCS       D6
0010a4  c03c 000f                     AND.b     #$000f,D0
0010a8  c23c 000f                     AND.b     #$000f,D1
0010ac  9001                          SUB.b     D1,D0
0010ae  55c4                          SCS       D4
0010b0  8c7c 8000                     OR.w      #$8000,D6
0010b4  4240                          CLR.w     D0
0010b6  1019                          MOVE.b    (A1)+,D0
0010b8  d040                          ADD.w     D0,D0
0010ba  3233 0000                     MOVE.w    $00(A3,D0),D1
0010be  4ef3 1000                     JMP       $00(A3,D1)
        op_94:                        ; sub h
0010c2  1007                          MOVE.b    D7,D0
0010c4  1215                          MOVE.b    (A5),D1
0010c6  9e01                          SUB.b     D1,D7
0010c8  5bc2                          SMI       D2
0010ca  57c3                          SEQ       D3
0010cc  59c5                          SVS       D5
0010ce  55c6                          SCS       D6
0010d0  c03c 000f                     AND.b     #$000f,D0
0010d4  c23c 000f                     AND.b     #$000f,D1
0010d8  9001                          SUB.b     D1,D0
0010da  55c4                          SCS       D4
0010dc  8c7c 8000                     OR.w      #$8000,D6
0010e0  4240                          CLR.w     D0
0010e2  1019                          MOVE.b    (A1)+,D0
0010e4  d040                          ADD.w     D0,D0
0010e6  3233 0000                     MOVE.w    $00(A3,D0),D1
0010ea  4ef3 1000                     JMP       $00(A3,D1)
        op_95:                        ; sub l
0010ee  1007                          MOVE.b    D7,D0
0010f0  122d 0001                     MOVE.b    ($0001,a5),D1
0010f4  9e01                          SUB.b     D1,D7
0010f6  5bc2                          SMI       D2
0010f8  57c3                          SEQ       D3
0010fa  59c5                          SVS       D5
0010fc  55c6                          SCS       D6
0010fe  c03c 000f                     AND.b     #$000f,D0
001102  c23c 000f                     AND.b     #$000f,D1
001106  9001                          SUB.b     D1,D0
001108  55c4                          SCS       D4
00110a  8c7c 8000                     OR.w      #$8000,D6
00110e  4240                          CLR.w     D0
001110  1019                          MOVE.b    (A1)+,D0
001112  d040                          ADD.w     D0,D0
001114  3233 0000                     MOVE.w    $00(A3,D0),D1
001118  4ef3 1000                     JMP       $00(A3,D1)
        op_96:                        ; sub (hl)
00111c  1007                          MOVE.b    D7,D0
00111e  3215                          MOVE.w    (A5),D1
001120  1236 1800                     MOVE.b    $00(A6,D1.l),D1
001124  9e01                          SUB.b     D1,D7
001126  5bc2                          SMI       D2
001128  57c3                          SEQ       D3
00112a  59c5                          SVS       D5
00112c  55c6                          SCS       D6
00112e  c03c 000f                     AND.b     #$000f,D0
001132  c23c 000f                     AND.b     #$000f,D1
001136  9001                          SUB.b     D1,D0
001138  55c4                          SCS       D4
00113a  8c7c 8000                     OR.w      #$8000,D6
00113e  4240                          CLR.w     D0
001140  1019                          MOVE.b    (A1)+,D0
001142  d040                          ADD.w     D0,D0
001144  3233 0000                     MOVE.w    $00(A3,D0),D1
001148  4ef3 1000                     JMP       $00(A3,D1)
        op_97:                        ; sub a
00114c  4207                          CLR.b     D7
00114e  51c2                          SF        D2
001150  76ff                          MOVEQ     #-1,D3
001152  51c4                          SF        D4
001154  51c5                          SF        D5
001156  3c3c 8000                     MOVE.w    #$8000,D6
00115a  4240                          CLR.w     D0
00115c  1019                          MOVE.b    (A1)+,D0
00115e  d040                          ADD.w     D0,D0
001160  3233 0000                     MOVE.w    $00(A3,D0),D1
001164  4ef3 1000                     JMP       $00(A3,D1)
        op_98:                        ; sbc a,b
001168  1007                          MOVE.b    D7,D0
00116a  122d 0004                     MOVE.b    ($0004,a5),D1
00116e  1806                          MOVE.b    D6,D4
001170  44c4                          MOVE      D4,ccr
001172  9f01                          SUBX.b    D1,D7
001174  5bc2                          SMI       D2
001176  59c5                          SVS       D5
001178  55c6                          SCS       D6
00117a  4a07                          TST.b     D7
00117c  57c3                          SEQ       D3
00117e  c03c 000f                     AND.b     #$000f,D0
001182  c23c 000f                     AND.b     #$000f,D1
001186  44c4                          MOVE      D4,ccr
001188  9101                          SUBX.b    D1,D0
00118a  55c4                          SCS       D4
00118c  8c7c 8000                     OR.w      #$8000,D6
001190  4240                          CLR.w     D0
001192  1019                          MOVE.b    (A1)+,D0
001194  d040                          ADD.w     D0,D0
001196  3233 0000                     MOVE.w    $00(A3,D0),D1
00119a  4ef3 1000                     JMP       $00(A3,D1)
        op_99:                        ; sbc a,c
00119e  1007                          MOVE.b    D7,D0
0011a0  122d 0005                     MOVE.b    ($0005,a5),D1
0011a4  1806                          MOVE.b    D6,D4
0011a6  44c4                          MOVE      D4,ccr
0011a8  9f01                          SUBX.b    D1,D7
0011aa  5bc2                          SMI       D2
0011ac  59c5                          SVS       D5
0011ae  55c6                          SCS       D6
0011b0  4a07                          TST.b     D7
0011b2  57c3                          SEQ       D3
0011b4  c03c 000f                     AND.b     #$000f,D0
0011b8  c23c 000f                     AND.b     #$000f,D1
0011bc  44c4                          MOVE      D4,ccr
0011be  9101                          SUBX.b    D1,D0
0011c0  55c4                          SCS       D4
0011c2  8c7c 8000                     OR.w      #$8000,D6
0011c6  4240                          CLR.w     D0
0011c8  1019                          MOVE.b    (A1)+,D0
0011ca  d040                          ADD.w     D0,D0
0011cc  3233 0000                     MOVE.w    $00(A3,D0),D1
0011d0  4ef3 1000                     JMP       $00(A3,D1)
        op_9a:                        ; sbc a,d
0011d4  1007                          MOVE.b    D7,D0
0011d6  122d 0002                     MOVE.b    ($0002,a5),D1
0011da  1806                          MOVE.b    D6,D4
0011dc  44c4                          MOVE      D4,ccr
0011de  9f01                          SUBX.b    D1,D7
0011e0  5bc2                          SMI       D2
0011e2  59c5                          SVS       D5
0011e4  55c6                          SCS       D6
0011e6  4a07                          TST.b     D7
0011e8  57c3                          SEQ       D3
0011ea  c03c 000f                     AND.b     #$000f,D0
0011ee  c23c 000f                     AND.b     #$000f,D1
0011f2  44c4                          MOVE      D4,ccr
0011f4  9101                          SUBX.b    D1,D0
0011f6  55c4                          SCS       D4
0011f8  8c7c 8000                     OR.w      #$8000,D6
0011fc  4240                          CLR.w     D0
0011fe  1019                          MOVE.b    (A1)+,D0
001200  d040                          ADD.w     D0,D0
001202  3233 0000                     MOVE.w    $00(A3,D0),D1
001206  4ef3 1000                     JMP       $00(A3,D1)
        op_9b:                        ; sbc a,e
00120a  1007                          MOVE.b    D7,D0
00120c  122d 0003                     MOVE.b    ($0003,a5),D1
001210  1806                          MOVE.b    D6,D4
001212  44c4                          MOVE      D4,ccr
001214  9f01                          SUBX.b    D1,D7
001216  5bc2                          SMI       D2
001218  59c5                          SVS       D5
00121a  55c6                          SCS       D6
00121c  4a07                          TST.b     D7
00121e  57c3                          SEQ       D3
001220  c03c 000f                     AND.b     #$000f,D0
001224  c23c 000f                     AND.b     #$000f,D1
001228  44c4                          MOVE      D4,ccr
00122a  9101                          SUBX.b    D1,D0
00122c  55c4                          SCS       D4
00122e  8c7c 8000                     OR.w      #$8000,D6
001232  4240                          CLR.w     D0
001234  1019                          MOVE.b    (A1)+,D0
001236  d040                          ADD.w     D0,D0
001238  3233 0000                     MOVE.w    $00(A3,D0),D1
00123c  4ef3 1000                     JMP       $00(A3,D1)
        op_9c:                        ; sbc a,h
001240  1007                          MOVE.b    D7,D0
001242  1215                          MOVE.b    (A5),D1
001244  1806                          MOVE.b    D6,D4
001246  44c4                          MOVE      D4,ccr
001248  9f01                          SUBX.b    D1,D7
00124a  5bc2                          SMI       D2
00124c  59c5                          SVS       D5
00124e  55c6                          SCS       D6
001250  4a07                          TST.b     D7
001252  57c3                          SEQ       D3
001254  c03c 000f                     AND.b     #$000f,D0
001258  c23c 000f                     AND.b     #$000f,D1
00125c  44c4                          MOVE      D4,ccr
00125e  9101                          SUBX.b    D1,D0
001260  55c4                          SCS       D4
001262  8c7c 8000                     OR.w      #$8000,D6
001266  4240                          CLR.w     D0
001268  1019                          MOVE.b    (A1)+,D0
00126a  d040                          ADD.w     D0,D0
00126c  3233 0000                     MOVE.w    $00(A3,D0),D1
001270  4ef3 1000                     JMP       $00(A3,D1)
        op_9d:                        ; sbc a,l
001274  1007                          MOVE.b    D7,D0
001276  122d 0001                     MOVE.b    ($0001,a5),D1
00127a  1806                          MOVE.b    D6,D4
00127c  44c4                          MOVE      D4,ccr
00127e  9f01                          SUBX.b    D1,D7
001280  5bc2                          SMI       D2
001282  59c5                          SVS       D5
001284  55c6                          SCS       D6
001286  4a07                          TST.b     D7
001288  57c3                          SEQ       D3
00128a  c03c 000f                     AND.b     #$000f,D0
00128e  c23c 000f                     AND.b     #$000f,D1
001292  44c4                          MOVE      D4,ccr
001294  9101                          SUBX.b    D1,D0
001296  55c4                          SCS       D4
001298  8c7c 8000                     OR.w      #$8000,D6
00129c  4240                          CLR.w     D0
00129e  1019                          MOVE.b    (A1)+,D0
0012a0  d040                          ADD.w     D0,D0
0012a2  3233 0000                     MOVE.w    $00(A3,D0),D1
0012a6  4ef3 1000                     JMP       $00(A3,D1)
        op_9e:                        ; sbc a,(hl)
0012aa  1007                          MOVE.b    D7,D0
0012ac  3215                          MOVE.w    (A5),D1
0012ae  1236 1800                     MOVE.b    $00(A6,D1.l),D1
0012b2  1806                          MOVE.b    D6,D4
0012b4  44c4                          MOVE      D4,ccr
0012b6  9f01                          SUBX.b    D1,D7
0012b8  5bc2                          SMI       D2
0012ba  59c5                          SVS       D5
0012bc  55c6                          SCS       D6
0012be  4a07                          TST.b     D7
0012c0  57c3                          SEQ       D3
0012c2  c03c 000f                     AND.b     #$000f,D0
0012c6  c23c 000f                     AND.b     #$000f,D1
0012ca  44c4                          MOVE      D4,ccr
0012cc  9101                          SUBX.b    D1,D0
0012ce  55c4                          SCS       D4
0012d0  8c7c 8000                     OR.w      #$8000,D6
0012d4  4240                          CLR.w     D0
0012d6  1019                          MOVE.b    (A1)+,D0
0012d8  d040                          ADD.w     D0,D0
0012da  3233 0000                     MOVE.w    $00(A3,D0),D1
0012de  4ef3 1000                     JMP       $00(A3,D1)
        op_9f:                        ; sbc a,a
0012e2  1406                          MOVE.b    D6,D2
0012e4  1e06                          MOVE.b    D6,D7
0012e6  57c3                          SEQ       D3
0012e8  1806                          MOVE.b    D6,D4
0012ea  1a06                          MOVE.b    D6,D5
0012ec  8c7c 8000                     OR.w      #$8000,D6
0012f0  4240                          CLR.w     D0
0012f2  1019                          MOVE.b    (A1)+,D0
0012f4  d040                          ADD.w     D0,D0
0012f6  3233 0000                     MOVE.w    $00(A3,D0),D1
0012fa  4ef3 1000                     JMP       $00(A3,D1)
        op_a0:                        ; and b
0012fe  ce2d 0004                     AND.b     $0004(A5),D7
001302  5bc2                          SMI       D2
001304  57c3                          SEQ       D3
001306  51c6                          SF        D6
001308  4240                          CLR.w     D0
00130a  1019                          MOVE.b    (A1)+,D0
00130c  d040                          ADD.w     D0,D0
00130e  3233 0000                     MOVE.w    $00(A3,D0),D1
001312  4ef3 1000                     JMP       $00(A3,D1)
        op_a1:                        ; and c
001316  ce2d 0005                     AND.b     $0005(A5),D7
00131a  5bc2                          SMI       D2
00131c  57c3                          SEQ       D3
00131e  51c6                          SF        D6
001320  4240                          CLR.w     D0
001322  1019                          MOVE.b    (A1)+,D0
001324  d040                          ADD.w     D0,D0
001326  3233 0000                     MOVE.w    $00(A3,D0),D1
00132a  4ef3 1000                     JMP       $00(A3,D1)
        op_a2:                        ; and d
00132e  ce2d 0002                     AND.b     $0002(A5),D7
001332  5bc2                          SMI       D2
001334  57c3                          SEQ       D3
001336  51c6                          SF        D6
001338  4240                          CLR.w     D0
00133a  1019                          MOVE.b    (A1)+,D0
00133c  d040                          ADD.w     D0,D0
00133e  3233 0000                     MOVE.w    $00(A3,D0),D1
001342  4ef3 1000                     JMP       $00(A3,D1)
        op_a3:                        ; and e
001346  ce2d 0003                     AND.b     $0003(A5),D7
00134a  5bc2                          SMI       D2
00134c  57c3                          SEQ       D3
00134e  51c6                          SF        D6
001350  4240                          CLR.w     D0
001352  1019                          MOVE.b    (A1)+,D0
001354  d040                          ADD.w     D0,D0
001356  3233 0000                     MOVE.w    $00(A3,D0),D1
00135a  4ef3 1000                     JMP       $00(A3,D1)
        op_a4:                        ; and h
00135e  ce15                          AND.b     (A5),D7
001360  5bc2                          SMI       D2
001362  57c3                          SEQ       D3
001364  51c6                          SF        D6
001366  4240                          CLR.w     D0
001368  1019                          MOVE.b    (A1)+,D0
00136a  d040                          ADD.w     D0,D0
00136c  3233 0000                     MOVE.w    $00(A3,D0),D1
001370  4ef3 1000                     JMP       $00(A3,D1)
        op_a5:                        ; and l
001374  ce2d 0001                     AND.b     $0001(A5),D7
001378  5bc2                          SMI       D2
00137a  57c3                          SEQ       D3
00137c  51c6                          SF        D6
00137e  4240                          CLR.w     D0
001380  1019                          MOVE.b    (A1)+,D0
001382  d040                          ADD.w     D0,D0
001384  3233 0000                     MOVE.w    $00(A3,D0),D1
001388  4ef3 1000                     JMP       $00(A3,D1)
        op_a6:                        ; and (hl)
00138c  3215                          MOVE.w    (A5),D1
00138e  ce36 1800                     AND.b     $00(A6,D1.l),D7
001392  5bc2                          SMI       D2
001394  57c3                          SEQ       D3
001396  51c6                          SF        D6
001398  4240                          CLR.w     D0
00139a  1019                          MOVE.b    (A1)+,D0
00139c  d040                          ADD.w     D0,D0
00139e  3233 0000                     MOVE.w    $00(A3,D0),D1
0013a2  4ef3 1000                     JMP       $00(A3,D1)
        op_a7:                        ; and a
0013a6  4a07                          TST.b     D7
0013a8  5bc2                          SMI       D2
0013aa  57c3                          SEQ       D3
0013ac  51c6                          SF        D6
0013ae  4240                          CLR.w     D0
0013b0  1019                          MOVE.b    (A1)+,D0
0013b2  d040                          ADD.w     D0,D0
0013b4  3233 0000                     MOVE.w    $00(A3,D0),D1
0013b8  4ef3 1000                     JMP       $00(A3,D1)
        op_a8:                        ; xor b
0013bc  102d 0004                     MOVE.b    ($0004,a5),D0
0013c0  b107                          EOR.b     D0,D7
0013c2  5bc2                          SMI       D2
0013c4  57c3                          SEQ       D3
0013c6  51c6                          SF        D6
0013c8  4240                          CLR.w     D0
0013ca  1019                          MOVE.b    (A1)+,D0
0013cc  d040                          ADD.w     D0,D0
0013ce  3233 0000                     MOVE.w    $00(A3,D0),D1
0013d2  4ef3 1000                     JMP       $00(A3,D1)
        op_a9:                        ; xor c
0013d6  102d 0005                     MOVE.b    ($0005,a5),D0
0013da  b107                          EOR.b     D0,D7
0013dc  5bc2                          SMI       D2
0013de  57c3                          SEQ       D3
0013e0  51c6                          SF        D6
0013e2  4240                          CLR.w     D0
0013e4  1019                          MOVE.b    (A1)+,D0
0013e6  d040                          ADD.w     D0,D0
0013e8  3233 0000                     MOVE.w    $00(A3,D0),D1
0013ec  4ef3 1000                     JMP       $00(A3,D1)
        op_aa:                        ; xor d
0013f0  102d 0002                     MOVE.b    ($0002,a5),D0
0013f4  b107                          EOR.b     D0,D7
0013f6  5bc2                          SMI       D2
0013f8  57c3                          SEQ       D3
0013fa  51c6                          SF        D6
0013fc  4240                          CLR.w     D0
0013fe  1019                          MOVE.b    (A1)+,D0
001400  d040                          ADD.w     D0,D0
001402  3233 0000                     MOVE.w    $00(A3,D0),D1
001406  4ef3 1000                     JMP       $00(A3,D1)
        op_ab:                        ; xor e
00140a  102d 0003                     MOVE.b    ($0003,a5),D0
00140e  b107                          EOR.b     D0,D7
001410  5bc2                          SMI       D2
001412  57c3                          SEQ       D3
001414  51c6                          SF        D6
001416  4240                          CLR.w     D0
001418  1019                          MOVE.b    (A1)+,D0
00141a  d040                          ADD.w     D0,D0
00141c  3233 0000                     MOVE.w    $00(A3,D0),D1
001420  4ef3 1000                     JMP       $00(A3,D1)
        op_ac:                        ; xor h
001424  1015                          MOVE.b    (A5),D0
001426  b107                          EOR.b     D0,D7
001428  5bc2                          SMI       D2
00142a  57c3                          SEQ       D3
00142c  51c6                          SF        D6
00142e  4240                          CLR.w     D0
001430  1019                          MOVE.b    (A1)+,D0
001432  d040                          ADD.w     D0,D0
001434  3233 0000                     MOVE.w    $00(A3,D0),D1
001438  4ef3 1000                     JMP       $00(A3,D1)
        op_ad:                        ; xor l
00143c  102d 0001                     MOVE.b    ($0001,a5),D0
001440  b107                          EOR.b     D0,D7
001442  5bc2                          SMI       D2
001444  57c3                          SEQ       D3
001446  51c6                          SF        D6
001448  4240                          CLR.w     D0
00144a  1019                          MOVE.b    (A1)+,D0
00144c  d040                          ADD.w     D0,D0
00144e  3233 0000                     MOVE.w    $00(A3,D0),D1
001452  4ef3 1000                     JMP       $00(A3,D1)
        op_ae:                        ; xor (hl)
001456  3215                          MOVE.w    (A5),D1
001458  1036 1800                     MOVE.b    $00(A6,D1.l),D0
00145c  b107                          EOR.b     D0,D7
00145e  5bc2                          SMI       D2
001460  57c3                          SEQ       D3
001462  51c6                          SF        D6
001464  4240                          CLR.w     D0
001466  1019                          MOVE.b    (A1)+,D0
001468  d040                          ADD.w     D0,D0
00146a  3233 0000                     MOVE.w    $00(A3,D0),D1
00146e  4ef3 1000                     JMP       $00(A3,D1)
        op_af:                        ; xor a
001472  4207                          CLR.b     D7
001474  51c2                          SF        D2
001476  76ff                          MOVEQ     #-1,D3
001478  7aff                          MOVEQ     #-1,D5
00147a  51c6                          SF        D6
00147c  4240                          CLR.w     D0
00147e  1019                          MOVE.b    (A1)+,D0
001480  d040                          ADD.w     D0,D0
001482  3233 0000                     MOVE.w    $00(A3,D0),D1
001486  4ef3 1000                     JMP       $00(A3,D1)
        op_b0:                        ; or b
00148a  8e2d 0004                     OR.b      $0004(A5),D7
00148e  5bc2                          SMI       D2
001490  57c3                          SEQ       D3
001492  51c6                          SF        D6
001494  4240                          CLR.w     D0
001496  1019                          MOVE.b    (A1)+,D0
001498  d040                          ADD.w     D0,D0
00149a  3233 0000                     MOVE.w    $00(A3,D0),D1
00149e  4ef3 1000                     JMP       $00(A3,D1)
        op_b1:                        ; or c
0014a2  8e2d 0005                     OR.b      $0005(A5),D7
0014a6  5bc2                          SMI       D2
0014a8  57c3                          SEQ       D3
0014aa  51c6                          SF        D6
0014ac  4240                          CLR.w     D0
0014ae  1019                          MOVE.b    (A1)+,D0
0014b0  d040                          ADD.w     D0,D0
0014b2  3233 0000                     MOVE.w    $00(A3,D0),D1
0014b6  4ef3 1000                     JMP       $00(A3,D1)
        op_b2:                        ; or d
0014ba  8e2d 0002                     OR.b      $0002(A5),D7
0014be  5bc2                          SMI       D2
0014c0  57c3                          SEQ       D3
0014c2  51c6                          SF        D6
0014c4  4240                          CLR.w     D0
0014c6  1019                          MOVE.b    (A1)+,D0
0014c8  d040                          ADD.w     D0,D0
0014ca  3233 0000                     MOVE.w    $00(A3,D0),D1
0014ce  4ef3 1000                     JMP       $00(A3,D1)
        op_b3:                        ; or e
0014d2  8e2d 0003                     OR.b      $0003(A5),D7
0014d6  5bc2                          SMI       D2
0014d8  57c3                          SEQ       D3
0014da  51c6                          SF        D6
0014dc  4240                          CLR.w     D0
0014de  1019                          MOVE.b    (A1)+,D0
0014e0  d040                          ADD.w     D0,D0
0014e2  3233 0000                     MOVE.w    $00(A3,D0),D1
0014e6  4ef3 1000                     JMP       $00(A3,D1)
        op_b4:                        ; or h
0014ea  8e15                          OR.b      (A5),D7
0014ec  5bc2                          SMI       D2
0014ee  57c3                          SEQ       D3
0014f0  51c6                          SF        D6
0014f2  4240                          CLR.w     D0
0014f4  1019                          MOVE.b    (A1)+,D0
0014f6  d040                          ADD.w     D0,D0
0014f8  3233 0000                     MOVE.w    $00(A3,D0),D1
0014fc  4ef3 1000                     JMP       $00(A3,D1)
        op_b5:                        ; or l
001500  8e2d 0001                     OR.b      $0001(A5),D7
001504  5bc2                          SMI       D2
001506  57c3                          SEQ       D3
001508  51c6                          SF        D6
00150a  4240                          CLR.w     D0
00150c  1019                          MOVE.b    (A1)+,D0
00150e  d040                          ADD.w     D0,D0
001510  3233 0000                     MOVE.w    $00(A3,D0),D1
001514  4ef3 1000                     JMP       $00(A3,D1)
        op_b6:                        ; or (hl)
001518  3215                          MOVE.w    (A5),D1
00151a  8e36 1800                     OR.b      $00(A6,D1.l),D7
00151e  5bc2                          SMI       D2
001520  57c3                          SEQ       D3
001522  51c6                          SF        D6
001524  4240                          CLR.w     D0
001526  1019                          MOVE.b    (A1)+,D0
001528  d040                          ADD.w     D0,D0
00152a  3233 0000                     MOVE.w    $00(A3,D0),D1
00152e  4ef3 1000                     JMP       $00(A3,D1)
        op_b7:                        ; or a
001532  4a07                          TST.b     D7
001534  5bc2                          SMI       D2
001536  57c3                          SEQ       D3
001538  1a34 7000                     MOVE.b    $00(A4,D7),D5
00153c  51c6                          SF        D6
00153e  4240                          CLR.w     D0
001540  1019                          MOVE.b    (A1)+,D0
001542  d040                          ADD.w     D0,D0
001544  3233 0000                     MOVE.w    $00(A3,D0),D1
001548  4ef3 1000                     JMP       $00(A3,D1)
        op_b8:                        ; cp b
00154c  be2d 0004                     CMP.b     $0004(A5),D7
001550  5bc2                          SMI       D2
001552  57c3                          SEQ       D3
001554  59c5                          SVS       D5
001556  55c6                          SCS       D6
001558  4240                          CLR.w     D0
00155a  1019                          MOVE.b    (A1)+,D0
00155c  d040                          ADD.w     D0,D0
00155e  3233 0000                     MOVE.w    $00(A3,D0),D1
001562  4ef3 1000                     JMP       $00(A3,D1)
        op_b9:                        ; cp c
001566  be2d 0005                     CMP.b     $0005(A5),D7
00156a  5bc2                          SMI       D2
00156c  57c3                          SEQ       D3
00156e  59c5                          SVS       D5
001570  55c6                          SCS       D6
001572  4240                          CLR.w     D0
001574  1019                          MOVE.b    (A1)+,D0
001576  d040                          ADD.w     D0,D0
001578  3233 0000                     MOVE.w    $00(A3,D0),D1
00157c  4ef3 1000                     JMP       $00(A3,D1)
        op_ba:                        ; cp d
001580  be2d 0002                     CMP.b     $0002(A5),D7
001584  5bc2                          SMI       D2
001586  57c3                          SEQ       D3
001588  59c5                          SVS       D5
00158a  55c6                          SCS       D6
00158c  4240                          CLR.w     D0
00158e  1019                          MOVE.b    (A1)+,D0
001590  d040                          ADD.w     D0,D0
001592  3233 0000                     MOVE.w    $00(A3,D0),D1
001596  4ef3 1000                     JMP       $00(A3,D1)
        op_bb:                        ; cp e
00159a  be2d 0003                     CMP.b     $0003(A5),D7
00159e  5bc2                          SMI       D2
0015a0  57c3                          SEQ       D3
0015a2  59c5                          SVS       D5
0015a4  55c6                          SCS       D6
0015a6  4240                          CLR.w     D0
0015a8  1019                          MOVE.b    (A1)+,D0
0015aa  d040                          ADD.w     D0,D0
0015ac  3233 0000                     MOVE.w    $00(A3,D0),D1
0015b0  4ef3 1000                     JMP       $00(A3,D1)
        op_bc:                        ; cp h
0015b4  be15                          CMP.b     (A5),D7
0015b6  5bc2                          SMI       D2
0015b8  57c3                          SEQ       D3
0015ba  59c5                          SVS       D5
0015bc  55c6                          SCS       D6
0015be  4240                          CLR.w     D0
0015c0  1019                          MOVE.b    (A1)+,D0
0015c2  d040                          ADD.w     D0,D0
0015c4  3233 0000                     MOVE.w    $00(A3,D0),D1
0015c8  4ef3 1000                     JMP       $00(A3,D1)
        op_bd:                        ; cp l
0015cc  be2d 0001                     CMP.b     $0001(A5),D7
0015d0  5bc2                          SMI       D2
0015d2  57c3                          SEQ       D3
0015d4  59c5                          SVS       D5
0015d6  55c6                          SCS       D6
0015d8  4240                          CLR.w     D0
0015da  1019                          MOVE.b    (A1)+,D0
0015dc  d040                          ADD.w     D0,D0
0015de  3233 0000                     MOVE.w    $00(A3,D0),D1
0015e2  4ef3 1000                     JMP       $00(A3,D1)
        op_be:                        ; cp (hl)
0015e6  3215                          MOVE.w    (A5),D1
0015e8  be36 1800                     CMP.b     $00(A6,D1.l),D7
0015ec  5bc2                          SMI       D2
0015ee  57c3                          SEQ       D3
0015f0  59c5                          SVS       D5
0015f2  55c6                          SCS       D6
0015f4  4240                          CLR.w     D0
0015f6  1019                          MOVE.b    (A1)+,D0
0015f8  d040                          ADD.w     D0,D0
0015fa  3233 0000                     MOVE.w    $00(A3,D0),D1
0015fe  4ef3 1000                     JMP       $00(A3,D1)
        op_bf:                        ; cp a
001602  51c2                          SF        D2
001604  76ff                          MOVEQ     #-1,D3
001606  51c5                          SF        D5
001608  51c6                          SF        D6
00160a  4240                          CLR.w     D0
00160c  1019                          MOVE.b    (A1)+,D0
00160e  d040                          ADD.w     D0,D0
001610  3233 0000                     MOVE.w    $00(A3,D0),D1
001614  4ef3 1000                     JMP       $00(A3,D1)
        op_c0:                        ; ret nz
001618  4a03                          TST.b     D3
00161a  670e                          BEQ       $0000142a
00161c  4240                          CLR.w     D0
00161e  1019                          MOVE.b    (A1)+,D0
001620  d040                          ADD.w     D0,D0
001622  3233 0000                     MOVE.w    $00(A3,D0),D1
001626  4ef3 1000                     JMP       $00(A3,D1)
00162a  101a                          MOVE.b    (A2)+,D0
00162c  121a                          MOVE.b    (A2)+,D1
00162e  e059                          ROR.w     #8,D1
001630  1200                          MOVE.b    D0,D1
001632  43f6 1800                     LEA       $00(A6,D1.l),A1
001636  4240                          CLR.w     D0
001638  1019                          MOVE.b    (A1)+,D0
00163a  d040                          ADD.w     D0,D0
00163c  3233 0000                     MOVE.w    $00(A3,D0),D1
001640  4ef3 1000                     JMP       $00(A3,D1)
        op_c1:                        ; pop bc
001644  1b5a 0005                     MOVE.b    (A2)+,$0005(A5)
001648  1b5a 0004                     MOVE.b    (A2)+,$0004(A5)
00164c  4240                          CLR.w     D0
00164e  1019                          MOVE.b    (A1)+,D0
001650  d040                          ADD.w     D0,D0
001652  3233 0000                     MOVE.w    $00(A3,D0),D1
001656  4ef3 1000                     JMP       $00(A3,D1)
        op_c2:                        ; jp nz,nn
00165a  4a03                          TST.b     D3
00165c  6710                          BEQ       $0000146e
00165e  5489                          ADDQ.l    #2,A1
001660  4240                          CLR.w     D0
001662  1019                          MOVE.b    (A1)+,D0
001664  d040                          ADD.w     D0,D0
001666  3233 0000                     MOVE.w    $00(A3,D0),D1
00166a  4ef3 1000                     JMP       $00(A3,D1)
00166e  1019                          MOVE.b    (A1)+,D0
001670  1219                          MOVE.b    (A1)+,D1
001672  e059                          ROR.w     #8,D1
001674  1200                          MOVE.b    D0,D1
001676  43f6 1800                     LEA       $00(A6,D1.l),A1
00167a  4240                          CLR.w     D0
00167c  1019                          MOVE.b    (A1)+,D0
00167e  d040                          ADD.w     D0,D0
001680  3233 0000                     MOVE.w    $00(A3,D0),D1
001684  4ef3 1000                     JMP       $00(A3,D1)
        op_c3:                        ; jp nn
001688  1019                          MOVE.b    (A1)+,D0
00168a  1219                          MOVE.b    (A1)+,D1
00168c  e059                          ROR.w     #8,D1
00168e  1200                          MOVE.b    D0,D1
001690  43f6 1800                     LEA       $00(A6,D1.l),A1
001694  4240                          CLR.w     D0
001696  1019                          MOVE.b    (A1)+,D0
001698  d040                          ADD.w     D0,D0
00169a  3233 0000                     MOVE.w    $00(A3,D0),D1
00169e  4ef3 1000                     JMP       $00(A3,D1)
        op_c4:                        ; call nz,nn
0016a2  4a03                          TST.b     D3
0016a4  6710                          BEQ       $000014b6
0016a6  5489                          ADDQ.l    #2,A1
0016a8  4240                          CLR.w     D0
0016aa  1019                          MOVE.b    (A1)+,D0
0016ac  d040                          ADD.w     D0,D0
0016ae  3233 0000                     MOVE.w    $00(A3,D0),D1
0016b2  4ef3 1000                     JMP       $00(A3,D1)
0016b6  1019                          MOVE.b    (A1)+,D0
0016b8  1219                          MOVE.b    (A1)+,D1
0016ba  e059                          ROR.w     #8,D1
0016bc  1200                          MOVE.b    D0,D1
0016be  93ce                          SUBA.l    A6,A1
0016c0  3009                          MOVE.w    A1,D0
0016c2  43f6 1800                     LEA       $00(A6,D1.l),A1
0016c6  1200                          MOVE.b    D0,D1
0016c8  e058                          ROR.w     #8,D0
0016ca  1500                          MOVE.b    D0,-(A2)
0016cc  1501                          MOVE.b    D1,-(A2)
0016ce  4240                          CLR.w     D0
0016d0  1019                          MOVE.b    (A1)+,D0
0016d2  d040                          ADD.w     D0,D0
0016d4  3233 0000                     MOVE.w    $00(A3,D0),D1
0016d8  4ef3 1000                     JMP       $00(A3,D1)
        op_c5:                        ; push bc
0016dc  152d 0004                     MOVE.b    ($0004,a5),-(A2)
0016e0  152d 0005                     MOVE.b    ($0005,a5),-(A2)
0016e4  4240                          CLR.w     D0
0016e6  1019                          MOVE.b    (A1)+,D0
0016e8  d040                          ADD.w     D0,D0
0016ea  3233 0000                     MOVE.w    $00(A3,D0),D1
0016ee  4ef3 1000                     JMP       $00(A3,D1)
        op_c6:                        ; add a,n
0016f2  1007                          MOVE.b    D7,D0
0016f4  1219                          MOVE.b    (A1)+,D1
0016f6  de01                          ADD.b     D1,D7
0016f8  5bc2                          SMI       D2
0016fa  57c3                          SEQ       D3
0016fc  59c5                          SVS       D5
0016fe  55c6                          SCS       D6
001700  803c 00f0                     OR.b      #$00f0,D0
001704  c23c 000f                     AND.b     #$000f,D1
001708  d001                          ADD.b     D1,D0
00170a  55c4                          SCS       D4
00170c  cc7c 7fff                     AND.w     #$7fff,D6
001710  4240                          CLR.w     D0
001712  1019                          MOVE.b    (A1)+,D0
001714  d040                          ADD.w     D0,D0
001716  3233 0000                     MOVE.w    $00(A3,D0),D1
00171a  4ef3 1000                     JMP       $00(A3,D1)
        op_c7:                        ; rst 00h
00171e  93ce                          SUBA.l    A6,A1
001720  3009                          MOVE.w    A1,D0
001722  1200                          MOVE.b    D0,D1
001724  e058                          ROR.w     #8,D0
001726  1500                          MOVE.b    D0,-(A2)
001728  1501                          MOVE.b    D1,-(A2)
00172a  224e                          MOVEA.l   A6,A1
00172c  4240                          CLR.w     D0
00172e  1019                          MOVE.b    (A1)+,D0
001730  d040                          ADD.w     D0,D0
001732  3233 0000                     MOVE.w    $00(A3,D0),D1
001736  4ef3 1000                     JMP       $00(A3,D1)
        op_c8:                        ; ret z
00173a  4a03                          TST.b     D3
00173c  660e                          BNE       $0000154c
00173e  4240                          CLR.w     D0
001740  1019                          MOVE.b    (A1)+,D0
001742  d040                          ADD.w     D0,D0
001744  3233 0000                     MOVE.w    $00(A3,D0),D1
001748  4ef3 1000                     JMP       $00(A3,D1)
00174c  101a                          MOVE.b    (A2)+,D0
00174e  121a                          MOVE.b    (A2)+,D1
001750  e059                          ROR.w     #8,D1
001752  1200                          MOVE.b    D0,D1
001754  43f6 1800                     LEA       $00(A6,D1.l),A1
001758  4240                          CLR.w     D0
00175a  1019                          MOVE.b    (A1)+,D0
00175c  d040                          ADD.w     D0,D0
00175e  3233 0000                     MOVE.w    $00(A3,D0),D1
001762  4ef3 1000                     JMP       $00(A3,D1)
        op_c9:                        ; ret
001766  101a                          MOVE.b    (A2)+,D0
001768  121a                          MOVE.b    (A2)+,D1
00176a  e059                          ROR.w     #8,D1
00176c  1200                          MOVE.b    D0,D1
00176e  43f6 1800                     LEA       $00(A6,D1.l),A1
001772  4240                          CLR.w     D0
001774  1019                          MOVE.b    (A1)+,D0
001776  d040                          ADD.w     D0,D0
001778  3233 0000                     MOVE.w    $00(A3,D0),D1
00177c  4ef3 1000                     JMP       $00(A3,D1)
        op_ca:                        ; jp z,nn
001780  4a03                          TST.b     D3
001782  6610                          BNE       $00001594
001784  5489                          ADDQ.l    #2,A1
001786  4240                          CLR.w     D0
001788  1019                          MOVE.b    (A1)+,D0
00178a  d040                          ADD.w     D0,D0
00178c  3233 0000                     MOVE.w    $00(A3,D0),D1
001790  4ef3 1000                     JMP       $00(A3,D1)
001794  1019                          MOVE.b    (A1)+,D0
001796  1219                          MOVE.b    (A1)+,D1
001798  e059                          ROR.w     #8,D1
00179a  1200                          MOVE.b    D0,D1
00179c  43f6 1800                     LEA       $00(A6,D1.l),A1
0017a0  4240                          CLR.w     D0
0017a2  1019                          MOVE.b    (A1)+,D0
0017a4  d040                          ADD.w     D0,D0
0017a6  3233 0000                     MOVE.w    $00(A3,D0),D1
0017aa  4ef3 1000                     JMP       $00(A3,D1)
        op_cb:                        ; redirect -->
0017ae  206d 001c                     MOVEA.l   $001c(A5),A0
0017b2  4240                          CLR.w     D0
0017b4  1019                          MOVE.b    (A1)+,D0
0017b6  d040                          ADD.w     D0,D0
0017b8  3230 0000                     MOVE.w    $00(A0,D0),D1
0017bc  4ef0 1000                     JMP       $00(A0,D1)
        op_cc:                        ; call z,nn
0017c0  4a03                          TST.b     D3
0017c2  6610                          BNE       $000015d4
0017c4  5489                          ADDQ.l    #2,A1
0017c6  4240                          CLR.w     D0
0017c8  1019                          MOVE.b    (A1)+,D0
0017ca  d040                          ADD.w     D0,D0
0017cc  3233 0000                     MOVE.w    $00(A3,D0),D1
0017d0  4ef3 1000                     JMP       $00(A3,D1)
0017d4  1019                          MOVE.b    (A1)+,D0
0017d6  1219                          MOVE.b    (A1)+,D1
0017d8  e059                          ROR.w     #8,D1
0017da  1200                          MOVE.b    D0,D1
0017dc  93ce                          SUBA.l    A6,A1
0017de  3009                          MOVE.w    A1,D0
0017e0  43f6 1800                     LEA       $00(A6,D1.l),A1
0017e4  1200                          MOVE.b    D0,D1
0017e6  e058                          ROR.w     #8,D0
0017e8  1500                          MOVE.b    D0,-(A2)
0017ea  1501                          MOVE.b    D1,-(A2)
0017ec  4240                          CLR.w     D0
0017ee  1019                          MOVE.b    (A1)+,D0
0017f0  d040                          ADD.w     D0,D0
0017f2  3233 0000                     MOVE.w    $00(A3,D0),D1
0017f6  4ef3 1000                     JMP       $00(A3,D1)
        op_cd:                        ; call nn
0017fa  1019                          MOVE.b    (A1)+,D0
0017fc  1219                          MOVE.b    (A1)+,D1
0017fe  e059                          ROR.w     #8,D1
001800  1200                          MOVE.b    D0,D1
001802  93ce                          SUBA.l    A6,A1
001804  3009                          MOVE.w    A1,D0
001806  43f6 1800                     LEA       $00(A6,D1.l),A1
00180a  1200                          MOVE.b    D0,D1
00180c  e058                          ROR.w     #8,D0
00180e  1500                          MOVE.b    D0,-(A2)
001810  1501                          MOVE.b    D1,-(A2)
001812  4240                          CLR.w     D0
001814  1019                          MOVE.b    (A1)+,D0
001816  d040                          ADD.w     D0,D0
001818  3233 0000                     MOVE.w    $00(A3,D0),D1
00181c  4ef3 1000                     JMP       $00(A3,D1)
        op_ce:                        ; adc a,n
001820  1007                          MOVE.b    D7,D0
001822  1219                          MOVE.b    (A1)+,D1
001824  1806                          MOVE.b    D6,D4
001826  44c4                          MOVE      D4,ccr
001828  df01                          ADDX.b    D1,D7
00182a  5bc2                          SMI       D2
00182c  59c5                          SVS       D5
00182e  55c6                          SCS       D6
001830  4a07                          TST.b     D7
001832  57c3                          SEQ       D3
001834  803c 00f0                     OR.b      #$00f0,D0
001838  c23c 000f                     AND.b     #$000f,D1
00183c  44c4                          MOVE      D4,ccr
00183e  d101                          ADDX.b    D1,D0
001840  55c4                          SCS       D4
001842  cc7c 7fff                     AND.w     #$7fff,D6
001846  4240                          CLR.w     D0
001848  1019                          MOVE.b    (A1)+,D0
00184a  d040                          ADD.w     D0,D0
00184c  3233 0000                     MOVE.w    $00(A3,D0),D1
001850  4ef3 1000                     JMP       $00(A3,D1)
        op_cf:                        ; rst 08h
001854  93ce                          SUBA.l    A6,A1
001856  3009                          MOVE.w    A1,D0
001858  1200                          MOVE.b    D0,D1
00185a  e058                          ROR.w     #8,D0
00185c  1500                          MOVE.b    D0,-(A2)
00185e  1501                          MOVE.b    D1,-(A2)
001860  43ee 0008                     LEA       $0008(A6),A1
001864  4240                          CLR.w     D0
001866  1019                          MOVE.b    (A1)+,D0
001868  d040                          ADD.w     D0,D0
00186a  3233 0000                     MOVE.w    $00(A3,D0),D1
00186e  4ef3 1000                     JMP       $00(A3,D1)
        op_d0:                        ; ret nc
001872  4a06                          TST.b     D6
001874  670e                          BEQ       $00001684
001876  4240                          CLR.w     D0
001878  1019                          MOVE.b    (A1)+,D0
00187a  d040                          ADD.w     D0,D0
00187c  3233 0000                     MOVE.w    $00(A3,D0),D1
001880  4ef3 1000                     JMP       $00(A3,D1)
001884  101a                          MOVE.b    (A2)+,D0
001886  121a                          MOVE.b    (A2)+,D1
001888  e059                          ROR.w     #8,D1
00188a  1200                          MOVE.b    D0,D1
00188c  43f6 1800                     LEA       $00(A6,D1.l),A1
001890  4240                          CLR.w     D0
001892  1019                          MOVE.b    (A1)+,D0
001894  d040                          ADD.w     D0,D0
001896  3233 0000                     MOVE.w    $00(A3,D0),D1
00189a  4ef3 1000                     JMP       $00(A3,D1)
        op_d1:                        ; pop de
00189e  1b5a 0003                     MOVE.b    (A2)+,$0003(A5)
0018a2  1b5a 0002                     MOVE.b    (A2)+,$0002(A5)
0018a6  4240                          CLR.w     D0
0018a8  1019                          MOVE.b    (A1)+,D0
0018aa  d040                          ADD.w     D0,D0
0018ac  3233 0000                     MOVE.w    $00(A3,D0),D1
0018b0  4ef3 1000                     JMP       $00(A3,D1)
        op_d2:                        ; jp nc,nn
0018b4  4a06                          TST.b     D6
0018b6  6710                          BEQ       $000016c8
0018b8  5489                          ADDQ.l    #2,A1
0018ba  4240                          CLR.w     D0
0018bc  1019                          MOVE.b    (A1)+,D0
0018be  d040                          ADD.w     D0,D0
0018c0  3233 0000                     MOVE.w    $00(A3,D0),D1
0018c4  4ef3 1000                     JMP       $00(A3,D1)
0018c8  1019                          MOVE.b    (A1)+,D0
0018ca  1219                          MOVE.b    (A1)+,D1
0018cc  e059                          ROR.w     #8,D1
0018ce  1200                          MOVE.b    D0,D1
0018d0  43f6 1800                     LEA       $00(A6,D1.l),A1
0018d4  4240                          CLR.w     D0
0018d6  1019                          MOVE.b    (A1)+,D0
0018d8  d040                          ADD.w     D0,D0
0018da  3233 0000                     MOVE.w    $00(A3,D0),D1
0018de  4ef3 1000                     JMP       $00(A3,D1)
        op_d3:                        ; out (n),a
0018e2  1019                          MOVE.b    (A1)+,D0
0018e4  1207                          MOVE.b    D7,D1
0018e6  48a7 3f00                     MOVEM.w   D7/D6/D5/D4/D3/D2,-(A7)
0018ea  48e7 007e                     MOVEM.l   A6/A5/A4/A3/A2/A1,-(A7)
0018ee  206d 0034                     MOVEA.l   $0034(A5),A0
0018f2  4e90                          JSR       (A0)
0018f4  4cdf 7e00                     MOVEM.l   (A7)+,A1/A2/A3/A4/A5/A6
0018f8  4c9f 00fc                     MOVEM.w   (A7)+,D2/D3/D4/D5/D6/D7
0018fc  7200                          MOVEQ     #0,D1
0018fe  4240                          CLR.w     D0
001900  1019                          MOVE.b    (A1)+,D0
001902  d040                          ADD.w     D0,D0
001904  3233 0000                     MOVE.w    $00(A3,D0),D1
001908  4ef3 1000                     JMP       $00(A3,D1)
        op_d4:                        ; call nc,nn
00190c  4a06                          TST.b     D6
00190e  6710                          BEQ       $00001720
001910  5489                          ADDQ.l    #2,A1
001912  4240                          CLR.w     D0
001914  1019                          MOVE.b    (A1)+,D0
001916  d040                          ADD.w     D0,D0
001918  3233 0000                     MOVE.w    $00(A3,D0),D1
00191c  4ef3 1000                     JMP       $00(A3,D1)
001920  1019                          MOVE.b    (A1)+,D0
001922  1219                          MOVE.b    (A1)+,D1
001924  e059                          ROR.w     #8,D1
001926  1200                          MOVE.b    D0,D1
001928  93ce                          SUBA.l    A6,A1
00192a  3009                          MOVE.w    A1,D0
00192c  43f6 1800                     LEA       $00(A6,D1.l),A1
001930  1200                          MOVE.b    D0,D1
001932  e058                          ROR.w     #8,D0
001934  1500                          MOVE.b    D0,-(A2)
001936  1501                          MOVE.b    D1,-(A2)
001938  4240                          CLR.w     D0
00193a  1019                          MOVE.b    (A1)+,D0
00193c  d040                          ADD.w     D0,D0
00193e  3233 0000                     MOVE.w    $00(A3,D0),D1
001942  4ef3 1000                     JMP       $00(A3,D1)
        op_d5:                        ; push de
001946  152d 0002                     MOVE.b    ($0002,a5),-(A2)
00194a  152d 0003                     MOVE.b    ($0003,a5),-(A2)
00194e  4240                          CLR.w     D0
001950  1019                          MOVE.b    (A1)+,D0
001952  d040                          ADD.w     D0,D0
001954  3233 0000                     MOVE.w    $00(A3,D0),D1
001958  4ef3 1000                     JMP       $00(A3,D1)
        op_d6:                        ; sub n
00195c  1007                          MOVE.b    D7,D0
00195e  1219                          MOVE.b    (A1)+,D1
001960  9e01                          SUB.b     D1,D7
001962  5bc2                          SMI       D2
001964  57c3                          SEQ       D3
001966  59c5                          SVS       D5
001968  55c6                          SCS       D6
00196a  c03c 000f                     AND.b     #$000f,D0
00196e  c23c 000f                     AND.b     #$000f,D1
001972  9001                          SUB.b     D1,D0
001974  55c4                          SCS       D4
001976  8c7c 8000                     OR.w      #$8000,D6
00197a  4240                          CLR.w     D0
00197c  1019                          MOVE.b    (A1)+,D0
00197e  d040                          ADD.w     D0,D0
001980  3233 0000                     MOVE.w    $00(A3,D0),D1
001984  4ef3 1000                     JMP       $00(A3,D1)
        op_d7:                        ; rst 10h
001988  93ce                          SUBA.l    A6,A1
00198a  3009                          MOVE.w    A1,D0
00198c  1200                          MOVE.b    D0,D1
00198e  e058                          ROR.w     #8,D0
001990  1500                          MOVE.b    D0,-(A2)
001992  1501                          MOVE.b    D1,-(A2)
001994  43ee 0010                     LEA       $0010(A6),A1
001998  4240                          CLR.w     D0
00199a  1019                          MOVE.b    (A1)+,D0
00199c  d040                          ADD.w     D0,D0
00199e  3233 0000                     MOVE.w    $00(A3,D0),D1
0019a2  4ef3 1000                     JMP       $00(A3,D1)
        op_d8:                        ; ret c
0019a6  4a06                          TST.b     D6
0019a8  660e                          BNE       $000017b8
0019aa  4240                          CLR.w     D0
0019ac  1019                          MOVE.b    (A1)+,D0
0019ae  d040                          ADD.w     D0,D0
0019b0  3233 0000                     MOVE.w    $00(A3,D0),D1
0019b4  4ef3 1000                     JMP       $00(A3,D1)
0019b8  101a                          MOVE.b    (A2)+,D0
0019ba  121a                          MOVE.b    (A2)+,D1
0019bc  e059                          ROR.w     #8,D1
0019be  1200                          MOVE.b    D0,D1
0019c0  43f6 1800                     LEA       $00(A6,D1.l),A1
0019c4  4240                          CLR.w     D0
0019c6  1019                          MOVE.b    (A1)+,D0
0019c8  d040                          ADD.w     D0,D0
0019ca  3233 0000                     MOVE.w    $00(A3,D0),D1
0019ce  4ef3 1000                     JMP       $00(A3,D1)
        op_d9:                        ; exx
0019d2  2015                          MOVE.l    (A5),D0
0019d4  2aad 0008                     MOVE.l    ($0008,a5),(A5)
0019d8  2b40 0008                     MOVE.l    D0,$0008(A5)
0019dc  302d 0004                     MOVE.w    ($0004,a5),D0
0019e0  3b6d 000c 0004                MOVE.w    ($000c,a5),$0004(A5)
0019e6  3b40 000c                     MOVE.w    D0,$000c(A5)
0019ea  4240                          CLR.w     D0
0019ec  1019                          MOVE.b    (A1)+,D0
0019ee  d040                          ADD.w     D0,D0
0019f0  3233 0000                     MOVE.w    $00(A3,D0),D1
0019f4  4ef3 1000                     JMP       $00(A3,D1)
        op_da:                        ; jp c,nn
0019f8  4a06                          TST.b     D6
0019fa  6610                          BNE       $0000180c
0019fc  5489                          ADDQ.l    #2,A1
0019fe  4240                          CLR.w     D0
001a00  1019                          MOVE.b    (A1)+,D0
001a02  d040                          ADD.w     D0,D0
001a04  3233 0000                     MOVE.w    $00(A3,D0),D1
001a08  4ef3 1000                     JMP       $00(A3,D1)
001a0c  1019                          MOVE.b    (A1)+,D0
001a0e  1219                          MOVE.b    (A1)+,D1
001a10  e059                          ROR.w     #8,D1
001a12  1200                          MOVE.b    D0,D1
001a14  43f6 1800                     LEA       $00(A6,D1.l),A1
001a18  4240                          CLR.w     D0
001a1a  1019                          MOVE.b    (A1)+,D0
001a1c  d040                          ADD.w     D0,D0
001a1e  3233 0000                     MOVE.w    $00(A3,D0),D1
001a22  4ef3 1000                     JMP       $00(A3,D1)
        op_db:                        ; in a,(n)
001a26  1019                          MOVE.b    (A1)+,D0
001a28  48a7 3f00                     MOVEM.w   D7/D6/D5/D4/D3/D2,-(A7)
001a2c  48e7 007e                     MOVEM.l   A6/A5/A4/A3/A2/A1,-(A7)
001a30  206d 0030                     MOVEA.l   $0030(A5),A0
001a34  4e90                          JSR       (A0)
001a36  4cdf 7e00                     MOVEM.l   (A7)+,A1/A2/A3/A4/A5/A6
001a3a  4c9f 00fc                     MOVEM.w   (A7)+,D2/D3/D4/D5/D6/D7
001a3e  7200                          MOVEQ     #0,D1
001a40  4247                          CLR.w     D7
001a42  1e00                          MOVE.b    D0,D7
001a44  4240                          CLR.w     D0
001a46  1019                          MOVE.b    (A1)+,D0
001a48  d040                          ADD.w     D0,D0
001a4a  3233 0000                     MOVE.w    $00(A3,D0),D1
001a4e  4ef3 1000                     JMP       $00(A3,D1)
        op_dc:                        ; call c,nn
001a52  4a06                          TST.b     D6
001a54  6610                          BNE       $00001866
001a56  5489                          ADDQ.l    #2,A1
001a58  4240                          CLR.w     D0
001a5a  1019                          MOVE.b    (A1)+,D0
001a5c  d040                          ADD.w     D0,D0
001a5e  3233 0000                     MOVE.w    $00(A3,D0),D1
001a62  4ef3 1000                     JMP       $00(A3,D1)
001a66  1019                          MOVE.b    (A1)+,D0
001a68  1219                          MOVE.b    (A1)+,D1
001a6a  e059                          ROR.w     #8,D1
001a6c  1200                          MOVE.b    D0,D1
001a6e  93ce                          SUBA.l    A6,A1
001a70  3009                          MOVE.w    A1,D0
001a72  43f6 1800                     LEA       $00(A6,D1.l),A1
001a76  1200                          MOVE.b    D0,D1
001a78  e058                          ROR.w     #8,D0
001a7a  1500                          MOVE.b    D0,-(A2)
001a7c  1501                          MOVE.b    D1,-(A2)
001a7e  4240                          CLR.w     D0
001a80  1019                          MOVE.b    (A1)+,D0
001a82  d040                          ADD.w     D0,D0
001a84  3233 0000                     MOVE.w    $00(A3,D0),D1
001a88  4ef3 1000                     JMP       $00(A3,D1)
        op_dd:                        ; redirect -->
001a8c  206d 0020                     MOVEA.l   $0020(A5),A0
001a90  4240                          CLR.w     D0
001a92  1019                          MOVE.b    (A1)+,D0
001a94  d040                          ADD.w     D0,D0
001a96  3230 0000                     MOVE.w    $00(A0,D0),D1
001a9a  4ef0 1000                     JMP       $00(A0,D1)
        op_de:                        ; sbc a,n
001a9e  1007                          MOVE.b    D7,D0
001aa0  1219                          MOVE.b    (A1)+,D1
001aa2  1806                          MOVE.b    D6,D4
001aa4  44c4                          MOVE      D4,ccr
001aa6  9f01                          SUBX.b    D1,D7
001aa8  5bc2                          SMI       D2
001aaa  59c5                          SVS       D5
001aac  55c6                          SCS       D6
001aae  4a07                          TST.b     D7
001ab0  57c3                          SEQ       D3
001ab2  c03c 000f                     AND.b     #$000f,D0
001ab6  c23c 000f                     AND.b     #$000f,D1
001aba  44c4                          MOVE      D4,ccr
001abc  9101                          SUBX.b    D1,D0
001abe  55c4                          SCS       D4
001ac0  8c7c 8000                     OR.w      #$8000,D6
001ac4  4240                          CLR.w     D0
001ac6  1019                          MOVE.b    (A1)+,D0
001ac8  d040                          ADD.w     D0,D0
001aca  3233 0000                     MOVE.w    $00(A3,D0),D1
001ace  4ef3 1000                     JMP       $00(A3,D1)
        op_df:                        ; rst 18h
001ad2  93ce                          SUBA.l    A6,A1
001ad4  3009                          MOVE.w    A1,D0
001ad6  1200                          MOVE.b    D0,D1
001ad8  e058                          ROR.w     #8,D0
001ada  1500                          MOVE.b    D0,-(A2)
001adc  1501                          MOVE.b    D1,-(A2)
001ade  43ee 0018                     LEA       $0018(A6),A1
001ae2  4240                          CLR.w     D0
001ae4  1019                          MOVE.b    (A1)+,D0
001ae6  d040                          ADD.w     D0,D0
001ae8  3233 0000                     MOVE.w    $00(A3,D0),D1
001aec  4ef3 1000                     JMP       $00(A3,D1)
        op_e0:                        ; ret po
001af0  4a05                          TST.b     D5
001af2  670e                          BEQ       $00001902
001af4  4240                          CLR.w     D0
001af6  1019                          MOVE.b    (A1)+,D0
001af8  d040                          ADD.w     D0,D0
001afa  3233 0000                     MOVE.w    $00(A3,D0),D1
001afe  4ef3 1000                     JMP       $00(A3,D1)
001b02  101a                          MOVE.b    (A2)+,D0
001b04  121a                          MOVE.b    (A2)+,D1
001b06  e059                          ROR.w     #8,D1
001b08  1200                          MOVE.b    D0,D1
001b0a  43f6 1800                     LEA       $00(A6,D1.l),A1
001b0e  4240                          CLR.w     D0
001b10  1019                          MOVE.b    (A1)+,D0
001b12  d040                          ADD.w     D0,D0
001b14  3233 0000                     MOVE.w    $00(A3,D0),D1
001b18  4ef3 1000                     JMP       $00(A3,D1)
        op_e1:                        ; pop hl
001b1c  1b5a 0001                     MOVE.b    (A2)+,$0001(A5)
001b20  1a9a                          MOVE.b    (A2)+,(A5)
001b22  4240                          CLR.w     D0
001b24  1019                          MOVE.b    (A1)+,D0
001b26  d040                          ADD.w     D0,D0
001b28  3233 0000                     MOVE.w    $00(A3,D0),D1
001b2c  4ef3 1000                     JMP       $00(A3,D1)
        op_e2:                        ; jp po,nn
001b30  4a05                          TST.b     D5
001b32  6710                          BEQ       $00001944
001b34  5489                          ADDQ.l    #2,A1
001b36  4240                          CLR.w     D0
001b38  1019                          MOVE.b    (A1)+,D0
001b3a  d040                          ADD.w     D0,D0
001b3c  3233 0000                     MOVE.w    $00(A3,D0),D1
001b40  4ef3 1000                     JMP       $00(A3,D1)
001b44  1019                          MOVE.b    (A1)+,D0
001b46  1219                          MOVE.b    (A1)+,D1
001b48  e059                          ROR.w     #8,D1
001b4a  1200                          MOVE.b    D0,D1
001b4c  43f6 1800                     LEA       $00(A6,D1.l),A1
001b50  4240                          CLR.w     D0
001b52  1019                          MOVE.b    (A1)+,D0
001b54  d040                          ADD.w     D0,D0
001b56  3233 0000                     MOVE.w    $00(A3,D0),D1
001b5a  4ef3 1000                     JMP       $00(A3,D1)
        op_e3:                        ; ex (sp),hl
001b5e  1015                          MOVE.b    (A5),D0
001b60  122d 0001                     MOVE.b    ($0001,a5),D1
001b64  1b5a 0001                     MOVE.b    (A2)+,$0001(A5)
001b68  1a92                          MOVE.b    (A2),(A5)
001b6a  1480                          MOVE.b    D0,(A2)
001b6c  1501                          MOVE.b    D1,-(A2)
001b6e  4240                          CLR.w     D0
001b70  1019                          MOVE.b    (A1)+,D0
001b72  d040                          ADD.w     D0,D0
001b74  3233 0000                     MOVE.w    $00(A3,D0),D1
001b78  4ef3 1000                     JMP       $00(A3,D1)
        op_e4:                        ; call po,nn
001b7c  4a05                          TST.b     D5
001b7e  6710                          BEQ       $00001990
001b80  5489                          ADDQ.l    #2,A1
001b82  4240                          CLR.w     D0
001b84  1019                          MOVE.b    (A1)+,D0
001b86  d040                          ADD.w     D0,D0
001b88  3233 0000                     MOVE.w    $00(A3,D0),D1
001b8c  4ef3 1000                     JMP       $00(A3,D1)
001b90  1019                          MOVE.b    (A1)+,D0
001b92  1219                          MOVE.b    (A1)+,D1
001b94  e059                          ROR.w     #8,D1
001b96  1200                          MOVE.b    D0,D1
001b98  93ce                          SUBA.l    A6,A1
001b9a  3009                          MOVE.w    A1,D0
001b9c  43f6 1800                     LEA       $00(A6,D1.l),A1
001ba0  1200                          MOVE.b    D0,D1
001ba2  e058                          ROR.w     #8,D0
001ba4  1500                          MOVE.b    D0,-(A2)
001ba6  1501                          MOVE.b    D1,-(A2)
001ba8  4240                          CLR.w     D0
001baa  1019                          MOVE.b    (A1)+,D0
001bac  d040                          ADD.w     D0,D0
001bae  3233 0000                     MOVE.w    $00(A3,D0),D1
001bb2  4ef3 1000                     JMP       $00(A3,D1)
        op_e5:                        ; push hl
001bb6  1515                          MOVE.b    (A5),-(A2)
001bb8  152d 0001                     MOVE.b    ($0001,a5),-(A2)
001bbc  4240                          CLR.w     D0
001bbe  1019                          MOVE.b    (A1)+,D0
001bc0  d040                          ADD.w     D0,D0
001bc2  3233 0000                     MOVE.w    $00(A3,D0),D1
001bc6  4ef3 1000                     JMP       $00(A3,D1)
        op_e6:                        ; and n
001bca  ce19                          AND.b     (A1)+,D7
001bcc  5bc2                          SMI       D2
001bce  57c3                          SEQ       D3
001bd0  51c6                          SF        D6
001bd2  4240                          CLR.w     D0
001bd4  1019                          MOVE.b    (A1)+,D0
001bd6  d040                          ADD.w     D0,D0
001bd8  3233 0000                     MOVE.w    $00(A3,D0),D1
001bdc  4ef3 1000                     JMP       $00(A3,D1)
        op_e7:                        ; rst 20h
001be0  93ce                          SUBA.l    A6,A1
001be2  3009                          MOVE.w    A1,D0
001be4  1200                          MOVE.b    D0,D1
001be6  e058                          ROR.w     #8,D0
001be8  1500                          MOVE.b    D0,-(A2)
001bea  1501                          MOVE.b    D1,-(A2)
001bec  43ee 0020                     LEA       $0020(A6),A1
001bf0  4240                          CLR.w     D0
001bf2  1019                          MOVE.b    (A1)+,D0
001bf4  d040                          ADD.w     D0,D0
001bf6  3233 0000                     MOVE.w    $00(A3,D0),D1
001bfa  4ef3 1000                     JMP       $00(A3,D1)
        op_e8:                        ; ret pe
001bfe  4a05                          TST.b     D5
001c00  660e                          BNE       $00001a10
001c02  4240                          CLR.w     D0
001c04  1019                          MOVE.b    (A1)+,D0
001c06  d040                          ADD.w     D0,D0
001c08  3233 0000                     MOVE.w    $00(A3,D0),D1
001c0c  4ef3 1000                     JMP       $00(A3,D1)
001c10  101a                          MOVE.b    (A2)+,D0
001c12  121a                          MOVE.b    (A2)+,D1
001c14  e059                          ROR.w     #8,D1
001c16  1200                          MOVE.b    D0,D1
001c18  43f6 1800                     LEA       $00(A6,D1.l),A1
001c1c  4240                          CLR.w     D0
001c1e  1019                          MOVE.b    (A1)+,D0
001c20  d040                          ADD.w     D0,D0
001c22  3233 0000                     MOVE.w    $00(A3,D0),D1
001c26  4ef3 1000                     JMP       $00(A3,D1)
        op_e9:                        ; jp (hl)
001c2a  3215                          MOVE.w    (A5),D1
001c2c  43f6 1800                     LEA       $00(A6,D1.l),A1
001c30  4240                          CLR.w     D0
001c32  1019                          MOVE.b    (A1)+,D0
001c34  d040                          ADD.w     D0,D0
001c36  3233 0000                     MOVE.w    $00(A3,D0),D1
001c3a  4ef3 1000                     JMP       $00(A3,D1)
        op_ea:                        ; jp pe,nn
001c3e  4a05                          TST.b     D5
001c40  6610                          BNE       $00001a52
001c42  5489                          ADDQ.l    #2,A1
001c44  4240                          CLR.w     D0
001c46  1019                          MOVE.b    (A1)+,D0
001c48  d040                          ADD.w     D0,D0
001c4a  3233 0000                     MOVE.w    $00(A3,D0),D1
001c4e  4ef3 1000                     JMP       $00(A3,D1)
001c52  1019                          MOVE.b    (A1)+,D0
001c54  1219                          MOVE.b    (A1)+,D1
001c56  e059                          ROR.w     #8,D1
001c58  1200                          MOVE.b    D0,D1
001c5a  43f6 1800                     LEA       $00(A6,D1.l),A1
001c5e  4240                          CLR.w     D0
001c60  1019                          MOVE.b    (A1)+,D0
001c62  d040                          ADD.w     D0,D0
001c64  3233 0000                     MOVE.w    $00(A3,D0),D1
001c68  4ef3 1000                     JMP       $00(A3,D1)
        op_eb:                        ; ex de,hl
001c6c  302d 0002                     MOVE.w    ($0002,a5),D0
001c70  3b55 0002                     MOVE.w    (A5),$0002(A5)
001c74  3a80                          MOVE.w    D0,(A5)
001c76  4240                          CLR.w     D0
001c78  1019                          MOVE.b    (A1)+,D0
001c7a  d040                          ADD.w     D0,D0
001c7c  3233 0000                     MOVE.w    $00(A3,D0),D1
001c80  4ef3 1000                     JMP       $00(A3,D1)
        op_ec:                        ; call pe,nn
001c84  4a05                          TST.b     D5
001c86  6610                          BNE       $00001a98
001c88  5489                          ADDQ.l    #2,A1
001c8a  4240                          CLR.w     D0
001c8c  1019                          MOVE.b    (A1)+,D0
001c8e  d040                          ADD.w     D0,D0
001c90  3233 0000                     MOVE.w    $00(A3,D0),D1
001c94  4ef3 1000                     JMP       $00(A3,D1)
001c98  1019                          MOVE.b    (A1)+,D0
001c9a  1219                          MOVE.b    (A1)+,D1
001c9c  e059                          ROR.w     #8,D1
001c9e  1200                          MOVE.b    D0,D1
001ca0  93ce                          SUBA.l    A6,A1
001ca2  3009                          MOVE.w    A1,D0
001ca4  43f6 1800                     LEA       $00(A6,D1.l),A1
001ca8  1200                          MOVE.b    D0,D1
001caa  e058                          ROR.w     #8,D0
001cac  1500                          MOVE.b    D0,-(A2)
001cae  1501                          MOVE.b    D1,-(A2)
001cb0  4240                          CLR.w     D0
001cb2  1019                          MOVE.b    (A1)+,D0
001cb4  d040                          ADD.w     D0,D0
001cb6  3233 0000                     MOVE.w    $00(A3,D0),D1
001cba  4ef3 1000                     JMP       $00(A3,D1)
        op_ed:                        ; redirect -->
001cbe  206d 0024                     MOVEA.l   $0024(A5),A0
001cc2  4240                          CLR.w     D0
001cc4  1019                          MOVE.b    (A1)+,D0
001cc6  d040                          ADD.w     D0,D0
001cc8  3230 0000                     MOVE.w    $00(A0,D0),D1
001ccc  4ef0 1000                     JMP       $00(A0,D1)
        op_ee:                        ; xor n
001cd0  1019                          MOVE.b    (A1)+,D0
001cd2  b107                          EOR.b     D0,D7
001cd4  5bc2                          SMI       D2
001cd6  57c3                          SEQ       D3
001cd8  51c6                          SF        D6
001cda  4240                          CLR.w     D0
001cdc  1019                          MOVE.b    (A1)+,D0
001cde  d040                          ADD.w     D0,D0
001ce0  3233 0000                     MOVE.w    $00(A3,D0),D1
001ce4  4ef3 1000                     JMP       $00(A3,D1)
        op_ef:                        ; rst 28h
001ce8  93ce                          SUBA.l    A6,A1
001cea  3009                          MOVE.w    A1,D0
001cec  1200                          MOVE.b    D0,D1
001cee  e058                          ROR.w     #8,D0
001cf0  1500                          MOVE.b    D0,-(A2)
001cf2  1501                          MOVE.b    D1,-(A2)
001cf4  43ee 0028                     LEA       $0028(A6),A1
001cf8  4240                          CLR.w     D0
001cfa  1019                          MOVE.b    (A1)+,D0
001cfc  d040                          ADD.w     D0,D0
001cfe  3233 0000                     MOVE.w    $00(A3,D0),D1
001d02  4ef3 1000                     JMP       $00(A3,D1)
        op_f0:                        ; ret p
001d06  4a02                          TST.b     D2
001d08  670e                          BEQ       $00001b18
001d0a  4240                          CLR.w     D0
001d0c  1019                          MOVE.b    (A1)+,D0
001d0e  d040                          ADD.w     D0,D0
001d10  3233 0000                     MOVE.w    $00(A3,D0),D1
001d14  4ef3 1000                     JMP       $00(A3,D1)
001d18  101a                          MOVE.b    (A2)+,D0
001d1a  121a                          MOVE.b    (A2)+,D1
001d1c  e059                          ROR.w     #8,D1
001d1e  1200                          MOVE.b    D0,D1
001d20  43f6 1800                     LEA       $00(A6,D1.l),A1
001d24  4240                          CLR.w     D0
001d26  1019                          MOVE.b    (A1)+,D0
001d28  d040                          ADD.w     D0,D0
001d2a  3233 0000                     MOVE.w    $00(A3,D0),D1
001d2e  4ef3 1000                     JMP       $00(A3,D1)
        op_f1:                        ; pop af
001d32  101a                          MOVE.b    (A2)+,D0
001d34  1e1a                          MOVE.b    (A2)+,D7
001d36  d000                          ADD.b     D0,D0
001d38  55c2                          SCS       D2
001d3a  d000                          ADD.b     D0,D0
001d3c  55c3                          SCS       D3
001d3e  d000                          ADD.b     D0,D0
001d40  55ed 0006                     SCS       $0006(A5)
001d44  d000                          ADD.b     D0,D0
001d46  55c4                          SCS       D4
001d48  d000                          ADD.b     D0,D0
001d4a  55ed 0007                     SCS       $0007(A5)
001d4e  d000                          ADD.b     D0,D0
001d50  55c5                          SCS       D5
001d52  d000                          ADD.b     D0,D0
001d54  e256                          ROXR.w    #1,D6
001d56  d000                          ADD.b     D0,D0
001d58  55c6                          SCS       D6
001d5a  4240                          CLR.w     D0
001d5c  1019                          MOVE.b    (A1)+,D0
001d5e  d040                          ADD.w     D0,D0
001d60  3233 0000                     MOVE.w    $00(A3,D0),D1
001d64  4ef3 1000                     JMP       $00(A3,D1)
        op_f2:                        ; jp p,nn
001d68  4a02                          TST.b     D2
001d6a  6710                          BEQ       $00001b7c
001d6c  5489                          ADDQ.l    #2,A1
001d6e  4240                          CLR.w     D0
001d70  1019                          MOVE.b    (A1)+,D0
001d72  d040                          ADD.w     D0,D0
001d74  3233 0000                     MOVE.w    $00(A3,D0),D1
001d78  4ef3 1000                     JMP       $00(A3,D1)
001d7c  1019                          MOVE.b    (A1)+,D0
001d7e  1219                          MOVE.b    (A1)+,D1
001d80  e059                          ROR.w     #8,D1
001d82  1200                          MOVE.b    D0,D1
001d84  43f6 1800                     LEA       $00(A6,D1.l),A1
001d88  4240                          CLR.w     D0
001d8a  1019                          MOVE.b    (A1)+,D0
001d8c  d040                          ADD.w     D0,D0
001d8e  3233 0000                     MOVE.w    $00(A3,D0),D1
001d92  4ef3 1000                     JMP       $00(A3,D1)
        op_f3:                        ; di
001d96  4240                          CLR.w     D0
001d98  1019                          MOVE.b    (A1)+,D0
001d9a  d040                          ADD.w     D0,D0
001d9c  3233 0000                     MOVE.w    $00(A3,D0),D1
001da0  4ef3 1000                     JMP       $00(A3,D1)
        op_f4:                        ; call p,nn
001da4  4a02                          TST.b     D2
001da6  6710                          BEQ       $00001bb8
001da8  5489                          ADDQ.l    #2,A1
001daa  4240                          CLR.w     D0
001dac  1019                          MOVE.b    (A1)+,D0
001dae  d040                          ADD.w     D0,D0
001db0  3233 0000                     MOVE.w    $00(A3,D0),D1
001db4  4ef3 1000                     JMP       $00(A3,D1)
001db8  1019                          MOVE.b    (A1)+,D0
001dba  1219                          MOVE.b    (A1)+,D1
001dbc  e059                          ROR.w     #8,D1
001dbe  1200                          MOVE.b    D0,D1
001dc0  93ce                          SUBA.l    A6,A1
001dc2  3009                          MOVE.w    A1,D0
001dc4  43f6 1800                     LEA       $00(A6,D1.l),A1
001dc8  1200                          MOVE.b    D0,D1
001dca  e058                          ROR.w     #8,D0
001dcc  1500                          MOVE.b    D0,-(A2)
001dce  1501                          MOVE.b    D1,-(A2)
001dd0  4240                          CLR.w     D0
001dd2  1019                          MOVE.b    (A1)+,D0
001dd4  d040                          ADD.w     D0,D0
001dd6  3233 0000                     MOVE.w    $00(A3,D0),D1
001dda  4ef3 1000                     JMP       $00(A3,D1)
        op_f5:                        ; push af
001dde  4200                          CLR.b     D0
001de0  9002                          SUB.b     D2,D0
001de2  d040                          ADD.w     D0,D0
001de4  9003                          SUB.b     D3,D0
001de6  d040                          ADD.w     D0,D0
001de8  902d 0006                     SUB.b     $0006(A5),D0
001dec  d040                          ADD.w     D0,D0
001dee  9004                          SUB.b     D4,D0
001df0  d040                          ADD.w     D0,D0
001df2  902d 0007                     SUB.b     $0007(A5),D0
001df6  d040                          ADD.w     D0,D0
001df8  9005                          SUB.b     D5,D0
001dfa  d040                          ADD.w     D0,D0
001dfc  4a46                          TST.w     D6
001dfe  5bc1                          SMI       D1
001e00  9001                          SUB.b     D1,D0
001e02  d040                          ADD.w     D0,D0
001e04  9006                          SUB.b     D6,D0
001e06  1507                          MOVE.b    D7,-(A2)
001e08  1500                          MOVE.b    D0,-(A2)
001e0a  4240                          CLR.w     D0
001e0c  1019                          MOVE.b    (A1)+,D0
001e0e  d040                          ADD.w     D0,D0
001e10  3233 0000                     MOVE.w    $00(A3,D0),D1
001e14  4ef3 1000                     JMP       $00(A3,D1)
        op_f6:                        ; or n
001e18  8e19                          OR.b      (A1)+,D7
001e1a  5bc2                          SMI       D2
001e1c  57c3                          SEQ       D3
001e1e  51c6                          SF        D6
001e20  4240                          CLR.w     D0
001e22  1019                          MOVE.b    (A1)+,D0
001e24  d040                          ADD.w     D0,D0
001e26  3233 0000                     MOVE.w    $00(A3,D0),D1
001e2a  4ef3 1000                     JMP       $00(A3,D1)
        op_f7:                        ; rst 30h
001e2e  93ce                          SUBA.l    A6,A1
001e30  3009                          MOVE.w    A1,D0
001e32  1200                          MOVE.b    D0,D1
001e34  e058                          ROR.w     #8,D0
001e36  1500                          MOVE.b    D0,-(A2)
001e38  1501                          MOVE.b    D1,-(A2)
001e3a  43ee 0030                     LEA       $0030(A6),A1
001e3e  4240                          CLR.w     D0
001e40  1019                          MOVE.b    (A1)+,D0
001e42  d040                          ADD.w     D0,D0
001e44  3233 0000                     MOVE.w    $00(A3,D0),D1
001e48  4ef3 1000                     JMP       $00(A3,D1)
        op_f8:                        ; ret m
001e4c  4a02                          TST.b     D2
001e4e  660e                          BNE       $00001c5e
001e50  4240                          CLR.w     D0
001e52  1019                          MOVE.b    (A1)+,D0
001e54  d040                          ADD.w     D0,D0
001e56  3233 0000                     MOVE.w    $00(A3,D0),D1
001e5a  4ef3 1000                     JMP       $00(A3,D1)
001e5e  101a                          MOVE.b    (A2)+,D0
001e60  121a                          MOVE.b    (A2)+,D1
001e62  e059                          ROR.w     #8,D1
001e64  1200                          MOVE.b    D0,D1
001e66  43f6 1800                     LEA       $00(A6,D1.l),A1
001e6a  4240                          CLR.w     D0
001e6c  1019                          MOVE.b    (A1)+,D0
001e6e  d040                          ADD.w     D0,D0
001e70  3233 0000                     MOVE.w    $00(A3,D0),D1
001e74  4ef3 1000                     JMP       $00(A3,D1)
        op_f9:                        ; ld sp,hl
001e78  3215                          MOVE.w    (A5),D1
001e7a  45f6 1800                     LEA       $00(A6,D1.l),A2
001e7e  4240                          CLR.w     D0
001e80  1019                          MOVE.b    (A1)+,D0
001e82  d040                          ADD.w     D0,D0
001e84  3233 0000                     MOVE.w    $00(A3,D0),D1
001e88  4ef3 1000                     JMP       $00(A3,D1)
        op_fa:                        ; jp m,nn
001e8c  4a02                          TST.b     D2
001e8e  6610                          BNE       $00001ca0
001e90  5489                          ADDQ.l    #2,A1
001e92  4240                          CLR.w     D0
001e94  1019                          MOVE.b    (A1)+,D0
001e96  d040                          ADD.w     D0,D0
001e98  3233 0000                     MOVE.w    $00(A3,D0),D1
001e9c  4ef3 1000                     JMP       $00(A3,D1)
001ea0  1019                          MOVE.b    (A1)+,D0
001ea2  1219                          MOVE.b    (A1)+,D1
001ea4  e059                          ROR.w     #8,D1
001ea6  1200                          MOVE.b    D0,D1
001ea8  43f6 1800                     LEA       $00(A6,D1.l),A1
001eac  4240                          CLR.w     D0
001eae  1019                          MOVE.b    (A1)+,D0
001eb0  d040                          ADD.w     D0,D0
001eb2  3233 0000                     MOVE.w    $00(A3,D0),D1
001eb6  4ef3 1000                     JMP       $00(A3,D1)
        op_fb:                        ; ei
001eba  4240                          CLR.w     D0
001ebc  1019                          MOVE.b    (A1)+,D0
001ebe  d040                          ADD.w     D0,D0
001ec0  3233 0000                     MOVE.w    $00(A3,D0),D1
001ec4  4ef3 1000                     JMP       $00(A3,D1)
        op_fc:                        ; call m,nn
001ec8  4a02                          TST.b     D2
001eca  6610                          BNE       $00001cdc
001ecc  5489                          ADDQ.l    #2,A1
001ece  4240                          CLR.w     D0
001ed0  1019                          MOVE.b    (A1)+,D0
001ed2  d040                          ADD.w     D0,D0
001ed4  3233 0000                     MOVE.w    $00(A3,D0),D1
001ed8  4ef3 1000                     JMP       $00(A3,D1)
001edc  1019                          MOVE.b    (A1)+,D0
001ede  1219                          MOVE.b    (A1)+,D1
001ee0  e059                          ROR.w     #8,D1
001ee2  1200                          MOVE.b    D0,D1
001ee4  93ce                          SUBA.l    A6,A1
001ee6  3009                          MOVE.w    A1,D0
001ee8  43f6 1800                     LEA       $00(A6,D1.l),A1
001eec  1200                          MOVE.b    D0,D1
001eee  e058                          ROR.w     #8,D0
001ef0  1500                          MOVE.b    D0,-(A2)
001ef2  1501                          MOVE.b    D1,-(A2)
001ef4  4240                          CLR.w     D0
001ef6  1019                          MOVE.b    (A1)+,D0
001ef8  d040                          ADD.w     D0,D0
001efa  3233 0000                     MOVE.w    $00(A3,D0),D1
001efe  4ef3 1000                     JMP       $00(A3,D1)
        op_fd:                        ; redirect -->
001f02  206d 0028                     MOVEA.l   $0028(A5),A0
001f06  4240                          CLR.w     D0
001f08  1019                          MOVE.b    (A1)+,D0
001f0a  d040                          ADD.w     D0,D0
001f0c  3230 0000                     MOVE.w    $00(A0,D0),D1
001f10  4ef0 1000                     JMP       $00(A0,D1)
        op_fe:                        ; cp n
001f14  be19                          CMP.b     (A1)+,D7
001f16  5bc2                          SMI       D2
001f18  57c3                          SEQ       D3
001f1a  59c5                          SVS       D5
001f1c  55c6                          SCS       D6
001f1e  4240                          CLR.w     D0
001f20  1019                          MOVE.b    (A1)+,D0
001f22  d040                          ADD.w     D0,D0
001f24  3233 0000                     MOVE.w    $00(A3,D0),D1
001f28  4ef3 1000                     JMP       $00(A3,D1)
        op_ff:                        ; rst 38h
001f2c  93ce                          SUBA.l    A6,A1
001f2e  3009                          MOVE.w    A1,D0
001f30  1200                          MOVE.b    D0,D1
001f32  e058                          ROR.w     #8,D0
001f34  1500                          MOVE.b    D0,-(A2)
001f36  1501                          MOVE.b    D1,-(A2)
001f38  43ee 0038                     LEA       $0038(A6),A1
001f3c  4240                          CLR.w     D0
001f3e  1019                          MOVE.b    (A1)+,D0
001f40  d040                          ADD.w     D0,D0
001f42  3233 0000                     MOVE.w    $00(A3,D0),D1
001f46  4ef3 1000                     JMP       $00(A3,D1)
        table_opcb:
001f4a  0200                          op_cb00 - dc.w  table_opcb
001f4c  021c                          op_cb01 - dc.w  table_opcb
001f4e  0238                          op_cb02 - dc.w  table_opcb
001f50  0254                          op_cb03 - dc.w  table_opcb
001f52  0270                          op_cb04 - dc.w  table_opcb
001f54  0288                          op_cb05 - dc.w  table_opcb
001f56  02a4                          op_cb06 - dc.w  table_opcb
001f58  02c2                          op_cb07 - dc.w  table_opcb
001f5a  02d6                          op_cb08 - dc.w  table_opcb
001f5c  02f2                          op_cb09 - dc.w  table_opcb
001f5e  030e                          op_cb0a - dc.w  table_opcb
001f60  032a                          op_cb0b - dc.w  table_opcb
001f62  0346                          op_cb0c - dc.w  table_opcb
001f64  035e                          op_cb0d - dc.w  table_opcb
001f66  037a                          op_cb0e - dc.w  table_opcb
001f68  0398                          op_cb0f - dc.w  table_opcb
001f6a  03ac                          op_cb10 - dc.w  table_opcb
001f6c  03ca                          op_cb11 - dc.w  table_opcb
001f6e  03e8                          op_cb12 - dc.w  table_opcb
001f70  0406                          op_cb13 - dc.w  table_opcb
001f72  0424                          op_cb14 - dc.w  table_opcb
001f74  043e                          op_cb15 - dc.w  table_opcb
001f76  045c                          op_cb16 - dc.w  table_opcb
001f78  047c                          op_cb17 - dc.w  table_opcb
001f7a  0492                          op_cb18 - dc.w  table_opcb
001f7c  04b0                          op_cb19 - dc.w  table_opcb
001f7e  04ce                          op_cb1a - dc.w  table_opcb
001f80  04ec                          op_cb1b - dc.w  table_opcb
001f82  050a                          op_cb1c - dc.w  table_opcb
001f84  0524                          op_cb1d - dc.w  table_opcb
001f86  0542                          op_cb1e - dc.w  table_opcb
001f88  0562                          op_cb1f - dc.w  table_opcb
001f8a  0578                          op_cb20 - dc.w  table_opcb
001f8c  0592                          op_cb21 - dc.w  table_opcb
001f8e  05ac                          op_cb22 - dc.w  table_opcb
001f90  05c6                          op_cb23 - dc.w  table_opcb
001f92  05e0                          op_cb24 - dc.w  table_opcb
001f94  05f6                          op_cb25 - dc.w  table_opcb
001f96  0610                          op_cb26 - dc.w  table_opcb
001f98  062c                          op_cb27 - dc.w  table_opcb
001f9a  0640                          op_cb28 - dc.w  table_opcb
001f9c  065c                          op_cb29 - dc.w  table_opcb
001f9e  0678                          op_cb2a - dc.w  table_opcb
001fa0  0694                          op_cb2b - dc.w  table_opcb
001fa2  06b0                          op_cb2c - dc.w  table_opcb
001fa4  06c8                          op_cb2d - dc.w  table_opcb
001fa6  06e4                          op_cb2e - dc.w  table_opcb
001fa8  0702                          op_cb2f - dc.w  table_opcb
001faa  ffff                          op_undefined - dc.w  table_opcb
001fac  ffff                          op_undefined - dc.w  table_opcb
001fae  ffff                          op_undefined - dc.w  table_opcb
001fb0  ffff                          op_undefined - dc.w  table_opcb
001fb2  ffff                          op_undefined - dc.w  table_opcb
001fb4  ffff                          op_undefined - dc.w  table_opcb
001fb6  ffff                          op_undefined - dc.w  table_opcb
001fb8  ffff                          op_undefined - dc.w  table_opcb
001fba  0716                          op_cb38 - dc.w  table_opcb
001fbc  0732                          op_cb39 - dc.w  table_opcb
001fbe  074e                          op_cb3a - dc.w  table_opcb
001fc0  076a                          op_cb3b - dc.w  table_opcb
001fc2  0786                          op_cb3c - dc.w  table_opcb
001fc4  079e                          op_cb3d - dc.w  table_opcb
001fc6  07ba                          op_cb3e - dc.w  table_opcb
001fc8  07d8                          op_cb3f - dc.w  table_opcb
001fca  07ec                          op_cb40 - dc.w  table_opcb
001fcc  0800                          op_cb41 - dc.w  table_opcb
001fce  0814                          op_cb42 - dc.w  table_opcb
001fd0  0828                          op_cb43 - dc.w  table_opcb
001fd2  083c                          op_cb44 - dc.w  table_opcb
001fd4  084e                          op_cb45 - dc.w  table_opcb
001fd6  0862                          op_cb46 - dc.w  table_opcb
001fd8  0878                          op_cb47 - dc.w  table_opcb
001fda  088a                          op_cb48 - dc.w  table_opcb
001fdc  089e                          op_cb49 - dc.w  table_opcb
001fde  08b2                          op_cb4a - dc.w  table_opcb
001fe0  08c6                          op_cb4b - dc.w  table_opcb
001fe2  08da                          op_cb4c - dc.w  table_opcb
001fe4  08ec                          op_cb4d - dc.w  table_opcb
001fe6  0900                          op_cb4e - dc.w  table_opcb
001fe8  0916                          op_cb4f - dc.w  table_opcb
001fea  0928                          op_cb50 - dc.w  table_opcb
001fec  093c                          op_cb51 - dc.w  table_opcb
001fee  0950                          op_cb52 - dc.w  table_opcb
001ff0  0964                          op_cb53 - dc.w  table_opcb
001ff2  0978                          op_cb54 - dc.w  table_opcb
001ff4  098a                          op_cb55 - dc.w  table_opcb
001ff6  099e                          op_cb56 - dc.w  table_opcb
001ff8  09b4                          op_cb57 - dc.w  table_opcb
001ffa  09c6                          op_cb58 - dc.w  table_opcb
001ffc  09da                          op_cb59 - dc.w  table_opcb
001ffe  09ee                          op_cb5a - dc.w  table_opcb
002000  0a02                          op_cb5b - dc.w  table_opcb
002002  0a16                          op_cb5c - dc.w  table_opcb
002004  0a28                          op_cb5d - dc.w  table_opcb
002006  0a3c                          op_cb5e - dc.w  table_opcb
002008  0a52                          op_cb5f - dc.w  table_opcb
00200a  0a64                          op_cb60 - dc.w  table_opcb
00200c  0a78                          op_cb61 - dc.w  table_opcb
00200e  0a8c                          op_cb62 - dc.w  table_opcb
002010  0aa0                          op_cb63 - dc.w  table_opcb
002012  0ab4                          op_cb64 - dc.w  table_opcb
002014  0ac6                          op_cb65 - dc.w  table_opcb
002016  0ada                          op_cb66 - dc.w  table_opcb
002018  0af0                          op_cb67 - dc.w  table_opcb
00201a  0b02                          op_cb68 - dc.w  table_opcb
00201c  0b16                          op_cb69 - dc.w  table_opcb
00201e  0b2a                          op_cb6a - dc.w  table_opcb
002020  0b3e                          op_cb6b - dc.w  table_opcb
002022  0b52                          op_cb6c - dc.w  table_opcb
002024  0b64                          op_cb6d - dc.w  table_opcb
002026  0b78                          op_cb6e - dc.w  table_opcb
002028  0b8e                          op_cb6f - dc.w  table_opcb
00202a  0ba0                          op_cb70 - dc.w  table_opcb
00202c  0bb4                          op_cb71 - dc.w  table_opcb
00202e  0bc8                          op_cb72 - dc.w  table_opcb
002030  0bdc                          op_cb73 - dc.w  table_opcb
002032  0bf0                          op_cb74 - dc.w  table_opcb
002034  0c02                          op_cb75 - dc.w  table_opcb
002036  0c16                          op_cb76 - dc.w  table_opcb
002038  0c2c                          op_cb77 - dc.w  table_opcb
00203a  0c3e                          op_cb78 - dc.w  table_opcb
00203c  0c50                          op_cb79 - dc.w  table_opcb
00203e  0c62                          op_cb7a - dc.w  table_opcb
002040  0c74                          op_cb7b - dc.w  table_opcb
002042  0c86                          op_cb7c - dc.w  table_opcb
002044  0c96                          op_cb7d - dc.w  table_opcb
002046  0ca8                          op_cb7e - dc.w  table_opcb
002048  0cbc                          op_cb7f - dc.w  table_opcb
00204a  0ccc                          op_cb80 - dc.w  table_opcb
00204c  0ce0                          op_cb81 - dc.w  table_opcb
00204e  0cf4                          op_cb82 - dc.w  table_opcb
002050  0d08                          op_cb83 - dc.w  table_opcb
002052  0d1c                          op_cb84 - dc.w  table_opcb
002054  0d2e                          op_cb85 - dc.w  table_opcb
002056  0d42                          op_cb86 - dc.w  table_opcb
002058  0d58                          op_cb87 - dc.w  table_opcb
00205a  0d6a                          op_cb88 - dc.w  table_opcb
00205c  0d7e                          op_cb89 - dc.w  table_opcb
00205e  0d92                          op_cb8a - dc.w  table_opcb
002060  0da6                          op_cb8b - dc.w  table_opcb
002062  0dba                          op_cb8c - dc.w  table_opcb
002064  0dcc                          op_cb8d - dc.w  table_opcb
002066  0de0                          op_cb8e - dc.w  table_opcb
002068  0df6                          op_cb8f - dc.w  table_opcb
00206a  0e08                          op_cb90 - dc.w  table_opcb
00206c  0e1c                          op_cb91 - dc.w  table_opcb
00206e  0e30                          op_cb92 - dc.w  table_opcb
002070  0e44                          op_cb93 - dc.w  table_opcb
002072  0e58                          op_cb94 - dc.w  table_opcb
002074  0e6a                          op_cb95 - dc.w  table_opcb
002076  0e7e                          op_cb96 - dc.w  table_opcb
002078  0e94                          op_cb97 - dc.w  table_opcb
00207a  0ea6                          op_cb98 - dc.w  table_opcb
00207c  0eba                          op_cb99 - dc.w  table_opcb
00207e  0ece                          op_cb9a - dc.w  table_opcb
002080  0ee2                          op_cb9b - dc.w  table_opcb
002082  0ef6                          op_cb9c - dc.w  table_opcb
002084  0f08                          op_cb9d - dc.w  table_opcb
002086  0f1c                          op_cb9e - dc.w  table_opcb
002088  0f32                          op_cb9f - dc.w  table_opcb
00208a  0f44                          op_cba0 - dc.w  table_opcb
00208c  0f58                          op_cba1 - dc.w  table_opcb
00208e  0f6c                          op_cba2 - dc.w  table_opcb
002090  0f80                          op_cba3 - dc.w  table_opcb
002092  0f94                          op_cba4 - dc.w  table_opcb
002094  0fa6                          op_cba5 - dc.w  table_opcb
002096  0fba                          op_cba6 - dc.w  table_opcb
002098  0fd0                          op_cba7 - dc.w  table_opcb
00209a  0fe2                          op_cba8 - dc.w  table_opcb
00209c  0ff6                          op_cba9 - dc.w  table_opcb
00209e  100a                          op_cbaa - dc.w  table_opcb
0020a0  101e                          op_cbab - dc.w  table_opcb
0020a2  1032                          op_cbac - dc.w  table_opcb
0020a4  1044                          op_cbad - dc.w  table_opcb
0020a6  1058                          op_cbae - dc.w  table_opcb
0020a8  106e                          op_cbaf - dc.w  table_opcb
0020aa  1080                          op_cbb0 - dc.w  table_opcb
0020ac  1094                          op_cbb1 - dc.w  table_opcb
0020ae  10a8                          op_cbb2 - dc.w  table_opcb
0020b0  10bc                          op_cbb3 - dc.w  table_opcb
0020b2  10d0                          op_cbb4 - dc.w  table_opcb
0020b4  10e2                          op_cbb5 - dc.w  table_opcb
0020b6  10f6                          op_cbb6 - dc.w  table_opcb
0020b8  110c                          op_cbb7 - dc.w  table_opcb
0020ba  111e                          op_cbb8 - dc.w  table_opcb
0020bc  1132                          op_cbb9 - dc.w  table_opcb
0020be  1146                          op_cbba - dc.w  table_opcb
0020c0  115a                          op_cbbb - dc.w  table_opcb
0020c2  116e                          op_cbbc - dc.w  table_opcb
0020c4  1180                          op_cbbd - dc.w  table_opcb
0020c6  1194                          op_cbbe - dc.w  table_opcb
0020c8  11aa                          op_cbbf - dc.w  table_opcb
0020ca  11bc                          op_cbc0 - dc.w  table_opcb
0020cc  11d0                          op_cbc1 - dc.w  table_opcb
0020ce  11e4                          op_cbc2 - dc.w  table_opcb
0020d0  11f8                          op_cbc3 - dc.w  table_opcb
0020d2  120c                          op_cbc4 - dc.w  table_opcb
0020d4  121e                          op_cbc5 - dc.w  table_opcb
0020d6  1232                          op_cbc6 - dc.w  table_opcb
0020d8  1248                          op_cbc7 - dc.w  table_opcb
0020da  125a                          op_cbc8 - dc.w  table_opcb
0020dc  126e                          op_cbc9 - dc.w  table_opcb
0020de  1282                          op_cbca - dc.w  table_opcb
0020e0  1296                          op_cbcb - dc.w  table_opcb
0020e2  12aa                          op_cbcc - dc.w  table_opcb
0020e4  12bc                          op_cbcd - dc.w  table_opcb
0020e6  12d0                          op_cbce - dc.w  table_opcb
0020e8  12e6                          op_cbcf - dc.w  table_opcb
0020ea  12f8                          op_cbd0 - dc.w  table_opcb
0020ec  130c                          op_cbd1 - dc.w  table_opcb
0020ee  1320                          op_cbd2 - dc.w  table_opcb
0020f0  1334                          op_cbd3 - dc.w  table_opcb
0020f2  1348                          op_cbd4 - dc.w  table_opcb
0020f4  135a                          op_cbd5 - dc.w  table_opcb
0020f6  136e                          op_cbd6 - dc.w  table_opcb
0020f8  1384                          op_cbd7 - dc.w  table_opcb
0020fa  1396                          op_cbd8 - dc.w  table_opcb
0020fc  13aa                          op_cbd9 - dc.w  table_opcb
0020fe  13be                          op_cbda - dc.w  table_opcb
002100  13d2                          op_cbdb - dc.w  table_opcb
002102  13e6                          op_cbdc - dc.w  table_opcb
002104  13f8                          op_cbdd - dc.w  table_opcb
002106  140c                          op_cbde - dc.w  table_opcb
002108  1422                          op_cbdf - dc.w  table_opcb
00210a  1434                          op_cbe0 - dc.w  table_opcb
00210c  1448                          op_cbe1 - dc.w  table_opcb
00210e  145c                          op_cbe2 - dc.w  table_opcb
002110  1470                          op_cbe3 - dc.w  table_opcb
002112  1484                          op_cbe4 - dc.w  table_opcb
002114  1496                          op_cbe5 - dc.w  table_opcb
002116  14aa                          op_cbe6 - dc.w  table_opcb
002118  14c0                          op_cbe7 - dc.w  table_opcb
00211a  14d2                          op_cbe8 - dc.w  table_opcb
00211c  14e6                          op_cbe9 - dc.w  table_opcb
00211e  14fa                          op_cbea - dc.w  table_opcb
002120  150e                          op_cbeb - dc.w  table_opcb
002122  1522                          op_cbec - dc.w  table_opcb
002124  1534                          op_cbed - dc.w  table_opcb
002126  1548                          op_cbee - dc.w  table_opcb
002128  155e                          op_cbef - dc.w  table_opcb
00212a  1570                          op_cbf0 - dc.w  table_opcb
00212c  1584                          op_cbf1 - dc.w  table_opcb
00212e  1598                          op_cbf2 - dc.w  table_opcb
002130  15ac                          op_cbf3 - dc.w  table_opcb
002132  15c0                          op_cbf4 - dc.w  table_opcb
002134  15d2                          op_cbf5 - dc.w  table_opcb
002136  15e6                          op_cbf6 - dc.w  table_opcb
002138  15fc                          op_cbf7 - dc.w  table_opcb
00213a  160e                          op_cbf8 - dc.w  table_opcb
00213c  1622                          op_cbf9 - dc.w  table_opcb
00213e  1636                          op_cbfa - dc.w  table_opcb
002140  164a                          op_cbfb - dc.w  table_opcb
002142  165e                          op_cbfc - dc.w  table_opcb
002144  1670                          op_cbfd - dc.w  table_opcb
002146  1684                          op_cbfe - dc.w  table_opcb
002148  169a                          op_cbff - dc.w  table_opcb
        op_cb00:                      ; rlc b
00214a  122d 0004                     MOVE.b    ($0004,a5),D1
00214e  e319                          ROL.b     #1,D1
002150  5bc2                          SMI       D2
002152  57c3                          SEQ       D3
002154  55c6                          SCS       D6
002156  1b41 0004                     MOVE.b    D1,$0004(A5)
00215a  1019                          MOVE.b    (A1)+,D0
00215c  d040                          ADD.w     D0,D0
00215e  3233 0000                     MOVE.w    $00(A3,D0),D1
002162  4ef3 1000                     JMP       $00(A3,D1)
        op_cb01:                      ; rlc c
002166  122d 0005                     MOVE.b    ($0005,a5),D1
00216a  e319                          ROL.b     #1,D1
00216c  5bc2                          SMI       D2
00216e  57c3                          SEQ       D3
002170  55c6                          SCS       D6
002172  1b41 0005                     MOVE.b    D1,$0005(A5)
002176  1019                          MOVE.b    (A1)+,D0
002178  d040                          ADD.w     D0,D0
00217a  3233 0000                     MOVE.w    $00(A3,D0),D1
00217e  4ef3 1000                     JMP       $00(A3,D1)
        op_cb02:                      ; rlc d
002182  122d 0002                     MOVE.b    ($0002,a5),D1
002186  e319                          ROL.b     #1,D1
002188  5bc2                          SMI       D2
00218a  57c3                          SEQ       D3
00218c  55c6                          SCS       D6
00218e  1b41 0002                     MOVE.b    D1,$0002(A5)
002192  1019                          MOVE.b    (A1)+,D0
002194  d040                          ADD.w     D0,D0
002196  3233 0000                     MOVE.w    $00(A3,D0),D1
00219a  4ef3 1000                     JMP       $00(A3,D1)
        op_cb03:                      ; rlc e
00219e  122d 0003                     MOVE.b    ($0003,a5),D1
0021a2  e319                          ROL.b     #1,D1
0021a4  5bc2                          SMI       D2
0021a6  57c3                          SEQ       D3
0021a8  55c6                          SCS       D6
0021aa  1b41 0003                     MOVE.b    D1,$0003(A5)
0021ae  1019                          MOVE.b    (A1)+,D0
0021b0  d040                          ADD.w     D0,D0
0021b2  3233 0000                     MOVE.w    $00(A3,D0),D1
0021b6  4ef3 1000                     JMP       $00(A3,D1)
        op_cb04:                      ; rlc h
0021ba  1215                          MOVE.b    (A5),D1
0021bc  e319                          ROL.b     #1,D1
0021be  5bc2                          SMI       D2
0021c0  57c3                          SEQ       D3
0021c2  55c6                          SCS       D6
0021c4  1a81                          MOVE.b    D1,(A5)
0021c6  1019                          MOVE.b    (A1)+,D0
0021c8  d040                          ADD.w     D0,D0
0021ca  3233 0000                     MOVE.w    $00(A3,D0),D1
0021ce  4ef3 1000                     JMP       $00(A3,D1)
        op_cb05:                      ; rlc l
0021d2  122d 0001                     MOVE.b    ($0001,a5),D1
0021d6  e319                          ROL.b     #1,D1
0021d8  5bc2                          SMI       D2
0021da  57c3                          SEQ       D3
0021dc  55c6                          SCS       D6
0021de  1b41 0001                     MOVE.b    D1,$0001(A5)
0021e2  1019                          MOVE.b    (A1)+,D0
0021e4  d040                          ADD.w     D0,D0
0021e6  3233 0000                     MOVE.w    $00(A3,D0),D1
0021ea  4ef3 1000                     JMP       $00(A3,D1)
        op_cb06:                      ; rlc (hl)
0021ee  3215                          MOVE.w    (A5),D1
0021f0  1036 1800                     MOVE.b    $00(A6,D1.l),D0
0021f4  e318                          ROL.b     #1,D0
0021f6  5bc2                          SMI       D2
0021f8  57c3                          SEQ       D3
0021fa  55c6                          SCS       D6
0021fc  1d80 1800                     MOVE.b    D0,$00(A6,D1.l)
002200  1019                          MOVE.b    (A1)+,D0
002202  d040                          ADD.w     D0,D0
002204  3233 0000                     MOVE.w    $00(A3,D0),D1
002208  4ef3 1000                     JMP       $00(A3,D1)
        op_cb07:                      ; rlc a
00220c  e31f                          ROL.b     #1,D7
00220e  5bc2                          SMI       D2
002210  57c3                          SEQ       D3
002212  55c6                          SCS       D6
002214  1019                          MOVE.b    (A1)+,D0
002216  d040                          ADD.w     D0,D0
002218  3233 0000                     MOVE.w    $00(A3,D0),D1
00221c  4ef3 1000                     JMP       $00(A3,D1)
        op_cb08:                      ; rrc b
002220  122d 0004                     MOVE.b    ($0004,a5),D1
002224  e219                          ROR.b     #1,D1
002226  5bc2                          SMI       D2
002228  57c3                          SEQ       D3
00222a  55c6                          SCS       D6
00222c  1b41 0004                     MOVE.b    D1,$0004(A5)
002230  1019                          MOVE.b    (A1)+,D0
002232  d040                          ADD.w     D0,D0
002234  3233 0000                     MOVE.w    $00(A3,D0),D1
002238  4ef3 1000                     JMP       $00(A3,D1)
        op_cb09:                      ; rrc c
00223c  122d 0005                     MOVE.b    ($0005,a5),D1
002240  e219                          ROR.b     #1,D1
002242  5bc2                          SMI       D2
002244  57c3                          SEQ       D3
002246  55c6                          SCS       D6
002248  1b41 0005                     MOVE.b    D1,$0005(A5)
00224c  1019                          MOVE.b    (A1)+,D0
00224e  d040                          ADD.w     D0,D0
002250  3233 0000                     MOVE.w    $00(A3,D0),D1
002254  4ef3 1000                     JMP       $00(A3,D1)
        op_cb0a:                      ; rrc d
002258  122d 0002                     MOVE.b    ($0002,a5),D1
00225c  e219                          ROR.b     #1,D1
00225e  5bc2                          SMI       D2
002260  57c3                          SEQ       D3
002262  55c6                          SCS       D6
002264  1b41 0002                     MOVE.b    D1,$0002(A5)
002268  1019                          MOVE.b    (A1)+,D0
00226a  d040                          ADD.w     D0,D0
00226c  3233 0000                     MOVE.w    $00(A3,D0),D1
002270  4ef3 1000                     JMP       $00(A3,D1)
        op_cb0b:                      ; rrc e
002274  122d 0003                     MOVE.b    ($0003,a5),D1
002278  e219                          ROR.b     #1,D1
00227a  5bc2                          SMI       D2
00227c  57c3                          SEQ       D3
00227e  55c6                          SCS       D6
002280  1b41 0003                     MOVE.b    D1,$0003(A5)
002284  1019                          MOVE.b    (A1)+,D0
002286  d040                          ADD.w     D0,D0
002288  3233 0000                     MOVE.w    $00(A3,D0),D1
00228c  4ef3 1000                     JMP       $00(A3,D1)
        op_cb0c:                      ; rrc h
002290  1215                          MOVE.b    (A5),D1
002292  e219                          ROR.b     #1,D1
002294  5bc2                          SMI       D2
002296  57c3                          SEQ       D3
002298  55c6                          SCS       D6
00229a  1a81                          MOVE.b    D1,(A5)
00229c  1019                          MOVE.b    (A1)+,D0
00229e  d040                          ADD.w     D0,D0
0022a0  3233 0000                     MOVE.w    $00(A3,D0),D1
0022a4  4ef3 1000                     JMP       $00(A3,D1)
        op_cb0d:                      ; rrc l
0022a8  122d 0001                     MOVE.b    ($0001,a5),D1
0022ac  e219                          ROR.b     #1,D1
0022ae  5bc2                          SMI       D2
0022b0  57c3                          SEQ       D3
0022b2  55c6                          SCS       D6
0022b4  1b41 0001                     MOVE.b    D1,$0001(A5)
0022b8  1019                          MOVE.b    (A1)+,D0
0022ba  d040                          ADD.w     D0,D0
0022bc  3233 0000                     MOVE.w    $00(A3,D0),D1
0022c0  4ef3 1000                     JMP       $00(A3,D1)
        op_cb0e:                      ; rrc (hl)
0022c4  3215                          MOVE.w    (A5),D1
0022c6  1036 1800                     MOVE.b    $00(A6,D1.l),D0
0022ca  e218                          ROR.b     #1,D0
0022cc  5bc2                          SMI       D2
0022ce  57c3                          SEQ       D3
0022d0  55c6                          SCS       D6
0022d2  1d80 1800                     MOVE.b    D0,$00(A6,D1.l)
0022d6  1019                          MOVE.b    (A1)+,D0
0022d8  d040                          ADD.w     D0,D0
0022da  3233 0000                     MOVE.w    $00(A3,D0),D1
0022de  4ef3 1000                     JMP       $00(A3,D1)
        op_cb0f:                      ; rrc a
0022e2  e21f                          ROR.b     #1,D7
0022e4  5bc2                          SMI       D2
0022e6  57c3                          SEQ       D3
0022e8  55c6                          SCS       D6
0022ea  1019                          MOVE.b    (A1)+,D0
0022ec  d040                          ADD.w     D0,D0
0022ee  3233 0000                     MOVE.w    $00(A3,D0),D1
0022f2  4ef3 1000                     JMP       $00(A3,D1)
        op_cb10:                      ; rl b
0022f6  122d 0004                     MOVE.b    ($0004,a5),D1
0022fa  44c6                          MOVE      D6,ccr
0022fc  e311                          ROXL.b    #1,D1
0022fe  5bc2                          SMI       D2
002300  57c3                          SEQ       D3
002302  55c6                          SCS       D6
002304  1b41 0004                     MOVE.b    D1,$0004(A5)
002308  1019                          MOVE.b    (A1)+,D0
00230a  d040                          ADD.w     D0,D0
00230c  3233 0000                     MOVE.w    $00(A3,D0),D1
002310  4ef3 1000                     JMP       $00(A3,D1)
        op_cb11:                      ; rl c
002314  122d 0005                     MOVE.b    ($0005,a5),D1
002318  44c6                          MOVE      D6,ccr
00231a  e311                          ROXL.b    #1,D1
00231c  5bc2                          SMI       D2
00231e  57c3                          SEQ       D3
002320  55c6                          SCS       D6
002322  1b41 0005                     MOVE.b    D1,$0005(A5)
002326  1019                          MOVE.b    (A1)+,D0
002328  d040                          ADD.w     D0,D0
00232a  3233 0000                     MOVE.w    $00(A3,D0),D1
00232e  4ef3 1000                     JMP       $00(A3,D1)
        op_cb12:                      ; rl d
002332  122d 0002                     MOVE.b    ($0002,a5),D1
002336  44c6                          MOVE      D6,ccr
002338  e311                          ROXL.b    #1,D1
00233a  5bc2                          SMI       D2
00233c  57c3                          SEQ       D3
00233e  55c6                          SCS       D6
002340  1b41 0002                     MOVE.b    D1,$0002(A5)
002344  1019                          MOVE.b    (A1)+,D0
002346  d040                          ADD.w     D0,D0
002348  3233 0000                     MOVE.w    $00(A3,D0),D1
00234c  4ef3 1000                     JMP       $00(A3,D1)
        op_cb13:                      ; rl e
002350  122d 0003                     MOVE.b    ($0003,a5),D1
002354  44c6                          MOVE      D6,ccr
002356  e311                          ROXL.b    #1,D1
002358  5bc2                          SMI       D2
00235a  57c3                          SEQ       D3
00235c  55c6                          SCS       D6
00235e  1b41 0003                     MOVE.b    D1,$0003(A5)
002362  1019                          MOVE.b    (A1)+,D0
002364  d040                          ADD.w     D0,D0
002366  3233 0000                     MOVE.w    $00(A3,D0),D1
00236a  4ef3 1000                     JMP       $00(A3,D1)
        op_cb14:                      ; rl h
00236e  1215                          MOVE.b    (A5),D1
002370  44c6                          MOVE      D6,ccr
002372  e311                          ROXL.b    #1,D1
002374  5bc2                          SMI       D2
002376  57c3                          SEQ       D3
002378  55c6                          SCS       D6
00237a  1a81                          MOVE.b    D1,(A5)
00237c  1019                          MOVE.b    (A1)+,D0
00237e  d040                          ADD.w     D0,D0
002380  3233 0000                     MOVE.w    $00(A3,D0),D1
002384  4ef3 1000                     JMP       $00(A3,D1)
        op_cb15:                      ; rl l
002388  122d 0001                     MOVE.b    ($0001,a5),D1
00238c  44c6                          MOVE      D6,ccr
00238e  e311                          ROXL.b    #1,D1
002390  5bc2                          SMI       D2
002392  57c3                          SEQ       D3
002394  55c6                          SCS       D6
002396  1b41 0001                     MOVE.b    D1,$0001(A5)
00239a  1019                          MOVE.b    (A1)+,D0
00239c  d040                          ADD.w     D0,D0
00239e  3233 0000                     MOVE.w    $00(A3,D0),D1
0023a2  4ef3 1000                     JMP       $00(A3,D1)
        op_cb16:                      ; rl (hl)
0023a6  3215                          MOVE.w    (A5),D1
0023a8  1036 1800                     MOVE.b    $00(A6,D1.l),D0
0023ac  44c6                          MOVE      D6,ccr
0023ae  e310                          ROXL.b    #1,D0
0023b0  5bc2                          SMI       D2
0023b2  57c3                          SEQ       D3
0023b4  55c6                          SCS       D6
0023b6  1d80 1800                     MOVE.b    D0,$00(A6,D1.l)
0023ba  1019                          MOVE.b    (A1)+,D0
0023bc  d040                          ADD.w     D0,D0
0023be  3233 0000                     MOVE.w    $00(A3,D0),D1
0023c2  4ef3 1000                     JMP       $00(A3,D1)
        op_cb17:                      ; rl a
0023c6  44c6                          MOVE      D6,ccr
0023c8  e317                          ROXL.b    #1,D7
0023ca  5bc2                          SMI       D2
0023cc  57c3                          SEQ       D3
0023ce  55c6                          SCS       D6
0023d0  1019                          MOVE.b    (A1)+,D0
0023d2  d040                          ADD.w     D0,D0
0023d4  3233 0000                     MOVE.w    $00(A3,D0),D1
0023d8  4ef3 1000                     JMP       $00(A3,D1)
        op_cb18:                      ; rr b
0023dc  122d 0004                     MOVE.b    ($0004,a5),D1
0023e0  44c6                          MOVE      D6,ccr
0023e2  e211                          ROXR.b    #1,D1
0023e4  5bc2                          SMI       D2
0023e6  57c3                          SEQ       D3
0023e8  55c6                          SCS       D6
0023ea  1b41 0004                     MOVE.b    D1,$0004(A5)
0023ee  1019                          MOVE.b    (A1)+,D0
0023f0  d040                          ADD.w     D0,D0
0023f2  3233 0000                     MOVE.w    $00(A3,D0),D1
0023f6  4ef3 1000                     JMP       $00(A3,D1)
        op_cb19:                      ; rr c
0023fa  122d 0005                     MOVE.b    ($0005,a5),D1
0023fe  44c6                          MOVE      D6,ccr
002400  e211                          ROXR.b    #1,D1
002402  5bc2                          SMI       D2
002404  57c3                          SEQ       D3
002406  55c6                          SCS       D6
002408  1b41 0005                     MOVE.b    D1,$0005(A5)
00240c  1019                          MOVE.b    (A1)+,D0
00240e  d040                          ADD.w     D0,D0
002410  3233 0000                     MOVE.w    $00(A3,D0),D1
002414  4ef3 1000                     JMP       $00(A3,D1)
        op_cb1a:                      ; rr d
002418  122d 0002                     MOVE.b    ($0002,a5),D1
00241c  44c6                          MOVE      D6,ccr
00241e  e211                          ROXR.b    #1,D1
002420  5bc2                          SMI       D2
002422  57c3                          SEQ       D3
002424  55c6                          SCS       D6
002426  1b41 0002                     MOVE.b    D1,$0002(A5)
00242a  1019                          MOVE.b    (A1)+,D0
00242c  d040                          ADD.w     D0,D0
00242e  3233 0000                     MOVE.w    $00(A3,D0),D1
002432  4ef3 1000                     JMP       $00(A3,D1)
        op_cb1b:                      ; rr e
002436  122d 0003                     MOVE.b    ($0003,a5),D1
00243a  44c6                          MOVE      D6,ccr
00243c  e211                          ROXR.b    #1,D1
00243e  5bc2                          SMI       D2
002440  57c3                          SEQ       D3
002442  55c6                          SCS       D6
002444  1b41 0003                     MOVE.b    D1,$0003(A5)
002448  1019                          MOVE.b    (A1)+,D0
00244a  d040                          ADD.w     D0,D0
00244c  3233 0000                     MOVE.w    $00(A3,D0),D1
002450  4ef3 1000                     JMP       $00(A3,D1)
        op_cb1c:                      ; rr h
002454  1215                          MOVE.b    (A5),D1
002456  44c6                          MOVE      D6,ccr
002458  e211                          ROXR.b    #1,D1
00245a  5bc2                          SMI       D2
00245c  57c3                          SEQ       D3
00245e  55c6                          SCS       D6
002460  1a81                          MOVE.b    D1,(A5)
002462  1019                          MOVE.b    (A1)+,D0
002464  d040                          ADD.w     D0,D0
002466  3233 0000                     MOVE.w    $00(A3,D0),D1
00246a  4ef3 1000                     JMP       $00(A3,D1)
        op_cb1d:                      ; rr l
00246e  122d 0001                     MOVE.b    ($0001,a5),D1
002472  44c6                          MOVE      D6,ccr
002474  e211                          ROXR.b    #1,D1
002476  5bc2                          SMI       D2
002478  57c3                          SEQ       D3
00247a  55c6                          SCS       D6
00247c  1b41 0001                     MOVE.b    D1,$0001(A5)
002480  1019                          MOVE.b    (A1)+,D0
002482  d040                          ADD.w     D0,D0
002484  3233 0000                     MOVE.w    $00(A3,D0),D1
002488  4ef3 1000                     JMP       $00(A3,D1)
        op_cb1e:                      ; rr (hl)
00248c  3215                          MOVE.w    (A5),D1
00248e  1036 1800                     MOVE.b    $00(A6,D1.l),D0
002492  44c6                          MOVE      D6,ccr
002494  e210                          ROXR.b    #1,D0
002496  5bc2                          SMI       D2
002498  57c3                          SEQ       D3
00249a  55c6                          SCS       D6
00249c  1d80 1800                     MOVE.b    D0,$00(A6,D1.l)
0024a0  1019                          MOVE.b    (A1)+,D0
0024a2  d040                          ADD.w     D0,D0
0024a4  3233 0000                     MOVE.w    $00(A3,D0),D1
0024a8  4ef3 1000                     JMP       $00(A3,D1)
        op_cb1f:                      ; rr a
0024ac  44c6                          MOVE      D6,ccr
0024ae  e217                          ROXR.b    #1,D7
0024b0  5bc2                          SMI       D2
0024b2  57c3                          SEQ       D3
0024b4  55c6                          SCS       D6
0024b6  1019                          MOVE.b    (A1)+,D0
0024b8  d040                          ADD.w     D0,D0
0024ba  3233 0000                     MOVE.w    $00(A3,D0),D1
0024be  4ef3 1000                     JMP       $00(A3,D1)
        op_cb20:                      ; sla b
0024c2  122d 0004                     MOVE.b    ($0004,a5),D1
0024c6  d32d 0004                     ADD.b     D1,$0004(A5)
0024ca  5bc2                          SMI       D2
0024cc  57c3                          SEQ       D3
0024ce  55c6                          SCS       D6
0024d0  1019                          MOVE.b    (A1)+,D0
0024d2  d040                          ADD.w     D0,D0
0024d4  3233 0000                     MOVE.w    $00(A3,D0),D1
0024d8  4ef3 1000                     JMP       $00(A3,D1)
        op_cb21:                      ; sla c
0024dc  122d 0005                     MOVE.b    ($0005,a5),D1
0024e0  d32d 0005                     ADD.b     D1,$0005(A5)
0024e4  5bc2                          SMI       D2
0024e6  57c3                          SEQ       D3
0024e8  55c6                          SCS       D6
0024ea  1019                          MOVE.b    (A1)+,D0
0024ec  d040                          ADD.w     D0,D0
0024ee  3233 0000                     MOVE.w    $00(A3,D0),D1
0024f2  4ef3 1000                     JMP       $00(A3,D1)
        op_cb22:                      ; sla d
0024f6  122d 0002                     MOVE.b    ($0002,a5),D1
0024fa  d32d 0002                     ADD.b     D1,$0002(A5)
0024fe  5bc2                          SMI       D2
002500  57c3                          SEQ       D3
002502  55c6                          SCS       D6
002504  1019                          MOVE.b    (A1)+,D0
002506  d040                          ADD.w     D0,D0
002508  3233 0000                     MOVE.w    $00(A3,D0),D1
00250c  4ef3 1000                     JMP       $00(A3,D1)
        op_cb23:                      ; sla e
002510  122d 0003                     MOVE.b    ($0003,a5),D1
002514  d32d 0003                     ADD.b     D1,$0003(A5)
002518  5bc2                          SMI       D2
00251a  57c3                          SEQ       D3
00251c  55c6                          SCS       D6
00251e  1019                          MOVE.b    (A1)+,D0
002520  d040                          ADD.w     D0,D0
002522  3233 0000                     MOVE.w    $00(A3,D0),D1
002526  4ef3 1000                     JMP       $00(A3,D1)
        op_cb24:                      ; sla h
00252a  1215                          MOVE.b    (A5),D1
00252c  d315                          ADD.b     D1,(A5)
00252e  5bc2                          SMI       D2
002530  57c3                          SEQ       D3
002532  55c6                          SCS       D6
002534  1019                          MOVE.b    (A1)+,D0
002536  d040                          ADD.w     D0,D0
002538  3233 0000                     MOVE.w    $00(A3,D0),D1
00253c  4ef3 1000                     JMP       $00(A3,D1)
        op_cb25:                      ; sla l
002540  122d 0001                     MOVE.b    ($0001,a5),D1
002544  d32d 0001                     ADD.b     D1,$0001(A5)
002548  5bc2                          SMI       D2
00254a  57c3                          SEQ       D3
00254c  55c6                          SCS       D6
00254e  1019                          MOVE.b    (A1)+,D0
002550  d040                          ADD.w     D0,D0
002552  3233 0000                     MOVE.w    $00(A3,D0),D1
002556  4ef3 1000                     JMP       $00(A3,D1)
        op_cb26:                      ; sla (hl)
00255a  3215                          MOVE.w    (A5),D1
00255c  1036 1800                     MOVE.b    $00(A6,D1.l),D0
002560  d136 1800                     ADD.b     D0,$00(A6,D1.l)
002564  5bc2                          SMI       D2
002566  57c3                          SEQ       D3
002568  55c6                          SCS       D6
00256a  1019                          MOVE.b    (A1)+,D0
00256c  d040                          ADD.w     D0,D0
00256e  3233 0000                     MOVE.w    $00(A3,D0),D1
002572  4ef3 1000                     JMP       $00(A3,D1)
        op_cb27:                      ; sla a
002576  de07                          ADD.b     D7,D7
002578  5bc2                          SMI       D2
00257a  57c3                          SEQ       D3
00257c  55c6                          SCS       D6
00257e  1019                          MOVE.b    (A1)+,D0
002580  d040                          ADD.w     D0,D0
002582  3233 0000                     MOVE.w    $00(A3,D0),D1
002586  4ef3 1000                     JMP       $00(A3,D1)
        op_cb28:                      ; sra b
00258a  122d 0004                     MOVE.b    ($0004,a5),D1
00258e  e201                          ASR.b     #1,D1
002590  5bc2                          SMI       D2
002592  57c3                          SEQ       D3
002594  55c6                          SCS       D6
002596  1b41 0004                     MOVE.b    D1,$0004(A5)
00259a  1019                          MOVE.b    (A1)+,D0
00259c  d040                          ADD.w     D0,D0
00259e  3233 0000                     MOVE.w    $00(A3,D0),D1
0025a2  4ef3 1000                     JMP       $00(A3,D1)
        op_cb29:                      ; sra c
0025a6  122d 0005                     MOVE.b    ($0005,a5),D1
0025aa  e201                          ASR.b     #1,D1
0025ac  5bc2                          SMI       D2
0025ae  57c3                          SEQ       D3
0025b0  55c6                          SCS       D6
0025b2  1b41 0005                     MOVE.b    D1,$0005(A5)
0025b6  1019                          MOVE.b    (A1)+,D0
0025b8  d040                          ADD.w     D0,D0
0025ba  3233 0000                     MOVE.w    $00(A3,D0),D1
0025be  4ef3 1000                     JMP       $00(A3,D1)
        op_cb2a:                      ; sra d
0025c2  122d 0002                     MOVE.b    ($0002,a5),D1
0025c6  e201                          ASR.b     #1,D1
0025c8  5bc2                          SMI       D2
0025ca  57c3                          SEQ       D3
0025cc  55c6                          SCS       D6
0025ce  1b41 0002                     MOVE.b    D1,$0002(A5)
0025d2  1019                          MOVE.b    (A1)+,D0
0025d4  d040                          ADD.w     D0,D0
0025d6  3233 0000                     MOVE.w    $00(A3,D0),D1
0025da  4ef3 1000                     JMP       $00(A3,D1)
        op_cb2b:                      ; sra e
0025de  122d 0003                     MOVE.b    ($0003,a5),D1
0025e2  e201                          ASR.b     #1,D1
0025e4  5bc2                          SMI       D2
0025e6  57c3                          SEQ       D3
0025e8  55c6                          SCS       D6
0025ea  1b41 0003                     MOVE.b    D1,$0003(A5)
0025ee  1019                          MOVE.b    (A1)+,D0
0025f0  d040                          ADD.w     D0,D0
0025f2  3233 0000                     MOVE.w    $00(A3,D0),D1
0025f6  4ef3 1000                     JMP       $00(A3,D1)
        op_cb2c:                      ; sra h
0025fa  1215                          MOVE.b    (A5),D1
0025fc  e201                          ASR.b     #1,D1
0025fe  5bc2                          SMI       D2
002600  57c3                          SEQ       D3
002602  55c6                          SCS       D6
002604  1a81                          MOVE.b    D1,(A5)
002606  1019                          MOVE.b    (A1)+,D0
002608  d040                          ADD.w     D0,D0
00260a  3233 0000                     MOVE.w    $00(A3,D0),D1
00260e  4ef3 1000                     JMP       $00(A3,D1)
        op_cb2d:                      ; sra l
002612  122d 0001                     MOVE.b    ($0001,a5),D1
002616  e201                          ASR.b     #1,D1
002618  5bc2                          SMI       D2
00261a  57c3                          SEQ       D3
00261c  55c6                          SCS       D6
00261e  1b41 0001                     MOVE.b    D1,$0001(A5)
002622  1019                          MOVE.b    (A1)+,D0
002624  d040                          ADD.w     D0,D0
002626  3233 0000                     MOVE.w    $00(A3,D0),D1
00262a  4ef3 1000                     JMP       $00(A3,D1)
        op_cb2e:                      ; sra (hl)
00262e  3215                          MOVE.w    (A5),D1
002630  1036 1800                     MOVE.b    $00(A6,D1.l),D0
002634  e200                          ASR.b     #1,D0
002636  5bc2                          SMI       D2
002638  57c3                          SEQ       D3
00263a  55c6                          SCS       D6
00263c  1d80 1800                     MOVE.b    D0,$00(A6,D1.l)
002640  1019                          MOVE.b    (A1)+,D0
002642  d040                          ADD.w     D0,D0
002644  3233 0000                     MOVE.w    $00(A3,D0),D1
002648  4ef3 1000                     JMP       $00(A3,D1)
        op_cb2f:                      ; sra a
00264c  e207                          ASR.b     #1,D7
00264e  5bc2                          SMI       D2
002650  57c3                          SEQ       D3
002652  55c6                          SCS       D6
002654  1019                          MOVE.b    (A1)+,D0
002656  d040                          ADD.w     D0,D0
002658  3233 0000                     MOVE.w    $00(A3,D0),D1
00265c  4ef3 1000                     JMP       $00(A3,D1)
        op_cb38:                      ; srl b
002660  122d 0004                     MOVE.b    ($0004,a5),D1
002664  e209                          LSR.b     #1,D1
002666  5bc2                          SMI       D2
002668  57c3                          SEQ       D3
00266a  55c6                          SCS       D6
00266c  1b41 0004                     MOVE.b    D1,$0004(A5)
002670  1019                          MOVE.b    (A1)+,D0
002672  d040                          ADD.w     D0,D0
002674  3233 0000                     MOVE.w    $00(A3,D0),D1
002678  4ef3 1000                     JMP       $00(A3,D1)
        op_cb39:                      ; srl c
00267c  122d 0005                     MOVE.b    ($0005,a5),D1
002680  e209                          LSR.b     #1,D1
002682  5bc2                          SMI       D2
002684  57c3                          SEQ       D3
002686  55c6                          SCS       D6
002688  1b41 0005                     MOVE.b    D1,$0005(A5)
00268c  1019                          MOVE.b    (A1)+,D0
00268e  d040                          ADD.w     D0,D0
002690  3233 0000                     MOVE.w    $00(A3,D0),D1
002694  4ef3 1000                     JMP       $00(A3,D1)
        op_cb3a:                      ; srl d
002698  122d 0002                     MOVE.b    ($0002,a5),D1
00269c  e209                          LSR.b     #1,D1
00269e  5bc2                          SMI       D2
0026a0  57c3                          SEQ       D3
0026a2  55c6                          SCS       D6
0026a4  1b41 0002                     MOVE.b    D1,$0002(A5)
0026a8  1019                          MOVE.b    (A1)+,D0
0026aa  d040                          ADD.w     D0,D0
0026ac  3233 0000                     MOVE.w    $00(A3,D0),D1
0026b0  4ef3 1000                     JMP       $00(A3,D1)
        op_cb3b:                      ; srl e
0026b4  122d 0003                     MOVE.b    ($0003,a5),D1
0026b8  e209                          LSR.b     #1,D1
0026ba  5bc2                          SMI       D2
0026bc  57c3                          SEQ       D3
0026be  55c6                          SCS       D6
0026c0  1b41 0003                     MOVE.b    D1,$0003(A5)
0026c4  1019                          MOVE.b    (A1)+,D0
0026c6  d040                          ADD.w     D0,D0
0026c8  3233 0000                     MOVE.w    $00(A3,D0),D1
0026cc  4ef3 1000                     JMP       $00(A3,D1)
        op_cb3c:                      ; srl h
0026d0  1215                          MOVE.b    (A5),D1
0026d2  e209                          LSR.b     #1,D1
0026d4  5bc2                          SMI       D2
0026d6  57c3                          SEQ       D3
0026d8  55c6                          SCS       D6
0026da  1a81                          MOVE.b    D1,(A5)
0026dc  1019                          MOVE.b    (A1)+,D0
0026de  d040                          ADD.w     D0,D0
0026e0  3233 0000                     MOVE.w    $00(A3,D0),D1
0026e4  4ef3 1000                     JMP       $00(A3,D1)
        op_cb3d:                      ; srl l
0026e8  122d 0001                     MOVE.b    ($0001,a5),D1
0026ec  e209                          LSR.b     #1,D1
0026ee  5bc2                          SMI       D2
0026f0  57c3                          SEQ       D3
0026f2  55c6                          SCS       D6
0026f4  1b41 0001                     MOVE.b    D1,$0001(A5)
0026f8  1019                          MOVE.b    (A1)+,D0
0026fa  d040                          ADD.w     D0,D0
0026fc  3233 0000                     MOVE.w    $00(A3,D0),D1
002700  4ef3 1000                     JMP       $00(A3,D1)
        op_cb3e:                      ; srl (hl)
002704  3215                          MOVE.w    (A5),D1
002706  1036 1800                     MOVE.b    $00(A6,D1.l),D0
00270a  e208                          LSR.b     #1,D0
00270c  5bc2                          SMI       D2
00270e  57c3                          SEQ       D3
002710  55c6                          SCS       D6
002712  1d80 1800                     MOVE.b    D0,$00(A6,D1.l)
002716  1019                          MOVE.b    (A1)+,D0
002718  d040                          ADD.w     D0,D0
00271a  3233 0000                     MOVE.w    $00(A3,D0),D1
00271e  4ef3 1000                     JMP       $00(A3,D1)
        op_cb3f:                      ; srl a
002722  e20f                          LSR.b     #1,D7
002724  5bc2                          SMI       D2
002726  57c3                          SEQ       D3
002728  55c6                          SCS       D6
00272a  1019                          MOVE.b    (A1)+,D0
00272c  d040                          ADD.w     D0,D0
00272e  3233 0000                     MOVE.w    $00(A3,D0),D1
002732  4ef3 1000                     JMP       $00(A3,D1)
        op_cb40:                      ; bit 0,b
002736  082d 0000 0004                BTST      #$00,$0004(A5)
00273c  57c3                          SEQ       D3
00273e  1019                          MOVE.b    (A1)+,D0
002740  d040                          ADD.w     D0,D0
002742  3233 0000                     MOVE.w    $00(A3,D0),D1
002746  4ef3 1000                     JMP       $00(A3,D1)
        op_cb41:                      ; bit 0,c
00274a  082d 0000 0005                BTST      #$00,$0005(A5)
002750  57c3                          SEQ       D3
002752  1019                          MOVE.b    (A1)+,D0
002754  d040                          ADD.w     D0,D0
002756  3233 0000                     MOVE.w    $00(A3,D0),D1
00275a  4ef3 1000                     JMP       $00(A3,D1)
        op_cb42:                      ; bit 0,d
00275e  082d 0000 0002                BTST      #$00,$0002(A5)
002764  57c3                          SEQ       D3
002766  1019                          MOVE.b    (A1)+,D0
002768  d040                          ADD.w     D0,D0
00276a  3233 0000                     MOVE.w    $00(A3,D0),D1
00276e  4ef3 1000                     JMP       $00(A3,D1)
        op_cb43:                      ; bit 0,e
002772  082d 0000 0003                BTST      #$00,$0003(A5)
002778  57c3                          SEQ       D3
00277a  1019                          MOVE.b    (A1)+,D0
00277c  d040                          ADD.w     D0,D0
00277e  3233 0000                     MOVE.w    $00(A3,D0),D1
002782  4ef3 1000                     JMP       $00(A3,D1)
        op_cb44:                      ; bit 0,h
002786  0815 0000                     BTST      #$00,(A5)
00278a  57c3                          SEQ       D3
00278c  1019                          MOVE.b    (A1)+,D0
00278e  d040                          ADD.w     D0,D0
002790  3233 0000                     MOVE.w    $00(A3,D0),D1
002794  4ef3 1000                     JMP       $00(A3,D1)
        op_cb45:                      ; bit 0,l
002798  082d 0000 0001                BTST      #$00,$0001(A5)
00279e  57c3                          SEQ       D3
0027a0  1019                          MOVE.b    (A1)+,D0
0027a2  d040                          ADD.w     D0,D0
0027a4  3233 0000                     MOVE.w    $00(A3,D0),D1
0027a8  4ef3 1000                     JMP       $00(A3,D1)
        op_cb46:                      ; bit 0,(hl)
0027ac  3215                          MOVE.w    (A5),D1
0027ae  0836 0000 1800                BTST      #$00,$00(A6,D1.l)
0027b4  57c3                          SEQ       D3
0027b6  1019                          MOVE.b    (A1)+,D0
0027b8  d040                          ADD.w     D0,D0
0027ba  3233 0000                     MOVE.w    $00(A3,D0),D1
0027be  4ef3 1000                     JMP       $00(A3,D1)
        op_cb47:                      ; bit 0,a
0027c2  0807 0000                     BTST      #$00,D7
0027c6  57c3                          SEQ       D3
0027c8  1019                          MOVE.b    (A1)+,D0
0027ca  d040                          ADD.w     D0,D0
0027cc  3233 0000                     MOVE.w    $00(A3,D0),D1
0027d0  4ef3 1000                     JMP       $00(A3,D1)
        op_cb48:                      ; bit 1,b
0027d4  082d 0001 0004                BTST      #$01,$0004(A5)
0027da  57c3                          SEQ       D3
0027dc  1019                          MOVE.b    (A1)+,D0
0027de  d040                          ADD.w     D0,D0
0027e0  3233 0000                     MOVE.w    $00(A3,D0),D1
0027e4  4ef3 1000                     JMP       $00(A3,D1)
        op_cb49:                      ; bit 1,c
0027e8  082d 0001 0005                BTST      #$01,$0005(A5)
0027ee  57c3                          SEQ       D3
0027f0  1019                          MOVE.b    (A1)+,D0
0027f2  d040                          ADD.w     D0,D0
0027f4  3233 0000                     MOVE.w    $00(A3,D0),D1
0027f8  4ef3 1000                     JMP       $00(A3,D1)
        op_cb4a:                      ; bit 1,d
0027fc  082d 0001 0002                BTST      #$01,$0002(A5)
002802  57c3                          SEQ       D3
002804  1019                          MOVE.b    (A1)+,D0
002806  d040                          ADD.w     D0,D0
002808  3233 0000                     MOVE.w    $00(A3,D0),D1
00280c  4ef3 1000                     JMP       $00(A3,D1)
        op_cb4b:                      ; bit 1,e
002810  082d 0001 0003                BTST      #$01,$0003(A5)
002816  57c3                          SEQ       D3
002818  1019                          MOVE.b    (A1)+,D0
00281a  d040                          ADD.w     D0,D0
00281c  3233 0000                     MOVE.w    $00(A3,D0),D1
002820  4ef3 1000                     JMP       $00(A3,D1)
        op_cb4c:                      ; bit 1,h
002824  0815 0001                     BTST      #$01,(A5)
002828  57c3                          SEQ       D3
00282a  1019                          MOVE.b    (A1)+,D0
00282c  d040                          ADD.w     D0,D0
00282e  3233 0000                     MOVE.w    $00(A3,D0),D1
002832  4ef3 1000                     JMP       $00(A3,D1)
        op_cb4d:                      ; bit 1,l
002836  082d 0001 0001                BTST      #$01,$0001(A5)
00283c  57c3                          SEQ       D3
00283e  1019                          MOVE.b    (A1)+,D0
002840  d040                          ADD.w     D0,D0
002842  3233 0000                     MOVE.w    $00(A3,D0),D1
002846  4ef3 1000                     JMP       $00(A3,D1)
        op_cb4e:                      ; bit 1,(hl)
00284a  3215                          MOVE.w    (A5),D1
00284c  0836 0001 1800                BTST      #$01,$00(A6,D1.l)
002852  57c3                          SEQ       D3
002854  1019                          MOVE.b    (A1)+,D0
002856  d040                          ADD.w     D0,D0
002858  3233 0000                     MOVE.w    $00(A3,D0),D1
00285c  4ef3 1000                     JMP       $00(A3,D1)
        op_cb4f:                      ; bit 1,a
002860  0807 0001                     BTST      #$01,D7
002864  57c3                          SEQ       D3
002866  1019                          MOVE.b    (A1)+,D0
002868  d040                          ADD.w     D0,D0
00286a  3233 0000                     MOVE.w    $00(A3,D0),D1
00286e  4ef3 1000                     JMP       $00(A3,D1)
        op_cb50:                      ; bit 2,b
002872  082d 0002 0004                BTST      #$02,$0004(A5)
002878  57c3                          SEQ       D3
00287a  1019                          MOVE.b    (A1)+,D0
00287c  d040                          ADD.w     D0,D0
00287e  3233 0000                     MOVE.w    $00(A3,D0),D1
002882  4ef3 1000                     JMP       $00(A3,D1)
        op_cb51:                      ; bit 2,c
002886  082d 0002 0005                BTST      #$02,$0005(A5)
00288c  57c3                          SEQ       D3
00288e  1019                          MOVE.b    (A1)+,D0
002890  d040                          ADD.w     D0,D0
002892  3233 0000                     MOVE.w    $00(A3,D0),D1
002896  4ef3 1000                     JMP       $00(A3,D1)
        op_cb52:                      ; bit 2,d
00289a  082d 0002 0002                BTST      #$02,$0002(A5)
0028a0  57c3                          SEQ       D3
0028a2  1019                          MOVE.b    (A1)+,D0
0028a4  d040                          ADD.w     D0,D0
0028a6  3233 0000                     MOVE.w    $00(A3,D0),D1
0028aa  4ef3 1000                     JMP       $00(A3,D1)
        op_cb53:                      ; bit 2,e
0028ae  082d 0002 0003                BTST      #$02,$0003(A5)
0028b4  57c3                          SEQ       D3
0028b6  1019                          MOVE.b    (A1)+,D0
0028b8  d040                          ADD.w     D0,D0
0028ba  3233 0000                     MOVE.w    $00(A3,D0),D1
0028be  4ef3 1000                     JMP       $00(A3,D1)
        op_cb54:                      ; bit 2,h
0028c2  0815 0002                     BTST      #$02,(A5)
0028c6  57c3                          SEQ       D3
0028c8  1019                          MOVE.b    (A1)+,D0
0028ca  d040                          ADD.w     D0,D0
0028cc  3233 0000                     MOVE.w    $00(A3,D0),D1
0028d0  4ef3 1000                     JMP       $00(A3,D1)
        op_cb55:                      ; bit 2,l
0028d4  082d 0002 0001                BTST      #$02,$0001(A5)
0028da  57c3                          SEQ       D3
0028dc  1019                          MOVE.b    (A1)+,D0
0028de  d040                          ADD.w     D0,D0
0028e0  3233 0000                     MOVE.w    $00(A3,D0),D1
0028e4  4ef3 1000                     JMP       $00(A3,D1)
        op_cb56:                      ; bit 2,(hl)
0028e8  3215                          MOVE.w    (A5),D1
0028ea  0836 0002 1800                BTST      #$02,$00(A6,D1.l)
0028f0  57c3                          SEQ       D3
0028f2  1019                          MOVE.b    (A1)+,D0
0028f4  d040                          ADD.w     D0,D0
0028f6  3233 0000                     MOVE.w    $00(A3,D0),D1
0028fa  4ef3 1000                     JMP       $00(A3,D1)
        op_cb57:                      ; bit 2,a
0028fe  0807 0002                     BTST      #$02,D7
002902  57c3                          SEQ       D3
002904  1019                          MOVE.b    (A1)+,D0
002906  d040                          ADD.w     D0,D0
002908  3233 0000                     MOVE.w    $00(A3,D0),D1
00290c  4ef3 1000                     JMP       $00(A3,D1)
        op_cb58:                      ; bit 3,b
002910  082d 0003 0004                BTST      #$03,$0004(A5)
002916  57c3                          SEQ       D3
002918  1019                          MOVE.b    (A1)+,D0
00291a  d040                          ADD.w     D0,D0
00291c  3233 0000                     MOVE.w    $00(A3,D0),D1
002920  4ef3 1000                     JMP       $00(A3,D1)
        op_cb59:                      ; bit 3,c
002924  082d 0003 0005                BTST      #$03,$0005(A5)
00292a  57c3                          SEQ       D3
00292c  1019                          MOVE.b    (A1)+,D0
00292e  d040                          ADD.w     D0,D0
002930  3233 0000                     MOVE.w    $00(A3,D0),D1
002934  4ef3 1000                     JMP       $00(A3,D1)
        op_cb5a:                      ; bit 3,d
002938  082d 0003 0002                BTST      #$03,$0002(A5)
00293e  57c3                          SEQ       D3
002940  1019                          MOVE.b    (A1)+,D0
002942  d040                          ADD.w     D0,D0
002944  3233 0000                     MOVE.w    $00(A3,D0),D1
002948  4ef3 1000                     JMP       $00(A3,D1)
        op_cb5b:                      ; bit 3,e
00294c  082d 0003 0003                BTST      #$03,$0003(A5)
002952  57c3                          SEQ       D3
002954  1019                          MOVE.b    (A1)+,D0
002956  d040                          ADD.w     D0,D0
002958  3233 0000                     MOVE.w    $00(A3,D0),D1
00295c  4ef3 1000                     JMP       $00(A3,D1)
        op_cb5c:                      ; bit 3,h
002960  0815 0003                     BTST      #$03,(A5)
002964  57c3                          SEQ       D3
002966  1019                          MOVE.b    (A1)+,D0
002968  d040                          ADD.w     D0,D0
00296a  3233 0000                     MOVE.w    $00(A3,D0),D1
00296e  4ef3 1000                     JMP       $00(A3,D1)
        op_cb5d:                      ; bit 3,l
002972  082d 0003 0001                BTST      #$03,$0001(A5)
002978  57c3                          SEQ       D3
00297a  1019                          MOVE.b    (A1)+,D0
00297c  d040                          ADD.w     D0,D0
00297e  3233 0000                     MOVE.w    $00(A3,D0),D1
002982  4ef3 1000                     JMP       $00(A3,D1)
        op_cb5e:                      ; bit 3,(hl)
002986  3215                          MOVE.w    (A5),D1
002988  0836 0003 1800                BTST      #$03,$00(A6,D1.l)
00298e  57c3                          SEQ       D3
002990  1019                          MOVE.b    (A1)+,D0
002992  d040                          ADD.w     D0,D0
002994  3233 0000                     MOVE.w    $00(A3,D0),D1
002998  4ef3 1000                     JMP       $00(A3,D1)
        op_cb5f:                      ; bit 3,a
00299c  0807 0003                     BTST      #$03,D7
0029a0  57c3                          SEQ       D3
0029a2  1019                          MOVE.b    (A1)+,D0
0029a4  d040                          ADD.w     D0,D0
0029a6  3233 0000                     MOVE.w    $00(A3,D0),D1
0029aa  4ef3 1000                     JMP       $00(A3,D1)
        op_cb60:                      ; bit 4,b
0029ae  082d 0004 0004                BTST      #$04,$0004(A5)
0029b4  57c3                          SEQ       D3
0029b6  1019                          MOVE.b    (A1)+,D0
0029b8  d040                          ADD.w     D0,D0
0029ba  3233 0000                     MOVE.w    $00(A3,D0),D1
0029be  4ef3 1000                     JMP       $00(A3,D1)
        op_cb61:                      ; bit 4,c
0029c2  082d 0004 0005                BTST      #$04,$0005(A5)
0029c8  57c3                          SEQ       D3
0029ca  1019                          MOVE.b    (A1)+,D0
0029cc  d040                          ADD.w     D0,D0
0029ce  3233 0000                     MOVE.w    $00(A3,D0),D1
0029d2  4ef3 1000                     JMP       $00(A3,D1)
        op_cb62:                      ; bit 4,d
0029d6  082d 0004 0002                BTST      #$04,$0002(A5)
0029dc  57c3                          SEQ       D3
0029de  1019                          MOVE.b    (A1)+,D0
0029e0  d040                          ADD.w     D0,D0
0029e2  3233 0000                     MOVE.w    $00(A3,D0),D1
0029e6  4ef3 1000                     JMP       $00(A3,D1)
        op_cb63:                      ; bit 4,e
0029ea  082d 0004 0003                BTST      #$04,$0003(A5)
0029f0  57c3                          SEQ       D3
0029f2  1019                          MOVE.b    (A1)+,D0
0029f4  d040                          ADD.w     D0,D0
0029f6  3233 0000                     MOVE.w    $00(A3,D0),D1
0029fa  4ef3 1000                     JMP       $00(A3,D1)
        op_cb64:                      ; bit 4,h
0029fe  0815 0004                     BTST      #$04,(A5)
002a02  57c3                          SEQ       D3
002a04  1019                          MOVE.b    (A1)+,D0
002a06  d040                          ADD.w     D0,D0
002a08  3233 0000                     MOVE.w    $00(A3,D0),D1
002a0c  4ef3 1000                     JMP       $00(A3,D1)
        op_cb65:                      ; bit 4,l
002a10  082d 0004 0001                BTST      #$04,$0001(A5)
002a16  57c3                          SEQ       D3
002a18  1019                          MOVE.b    (A1)+,D0
002a1a  d040                          ADD.w     D0,D0
002a1c  3233 0000                     MOVE.w    $00(A3,D0),D1
002a20  4ef3 1000                     JMP       $00(A3,D1)
        op_cb66:                      ; bit 4,(hl)
002a24  3215                          MOVE.w    (A5),D1
002a26  0836 0004 1800                BTST      #$04,$00(A6,D1.l)
002a2c  57c3                          SEQ       D3
002a2e  1019                          MOVE.b    (A1)+,D0
002a30  d040                          ADD.w     D0,D0
002a32  3233 0000                     MOVE.w    $00(A3,D0),D1
002a36  4ef3 1000                     JMP       $00(A3,D1)
        op_cb67:                      ; bit 4,a
002a3a  0807 0004                     BTST      #$04,D7
002a3e  57c3                          SEQ       D3
002a40  1019                          MOVE.b    (A1)+,D0
002a42  d040                          ADD.w     D0,D0
002a44  3233 0000                     MOVE.w    $00(A3,D0),D1
002a48  4ef3 1000                     JMP       $00(A3,D1)
        op_cb68:                      ; bit 5,b
002a4c  082d 0005 0004                BTST      #$05,$0004(A5)
002a52  57c3                          SEQ       D3
002a54  1019                          MOVE.b    (A1)+,D0
002a56  d040                          ADD.w     D0,D0
002a58  3233 0000                     MOVE.w    $00(A3,D0),D1
002a5c  4ef3 1000                     JMP       $00(A3,D1)
        op_cb69:                      ; bit 5,c
002a60  082d 0005 0005                BTST      #$05,$0005(A5)
002a66  57c3                          SEQ       D3
002a68  1019                          MOVE.b    (A1)+,D0
002a6a  d040                          ADD.w     D0,D0
002a6c  3233 0000                     MOVE.w    $00(A3,D0),D1
002a70  4ef3 1000                     JMP       $00(A3,D1)
        op_cb6a:                      ; bit 5,d
002a74  082d 0005 0002                BTST      #$05,$0002(A5)
002a7a  57c3                          SEQ       D3
002a7c  1019                          MOVE.b    (A1)+,D0
002a7e  d040                          ADD.w     D0,D0
002a80  3233 0000                     MOVE.w    $00(A3,D0),D1
002a84  4ef3 1000                     JMP       $00(A3,D1)
        op_cb6b:                      ; bit 5,e
002a88  082d 0005 0003                BTST      #$05,$0003(A5)
002a8e  57c3                          SEQ       D3
002a90  1019                          MOVE.b    (A1)+,D0
002a92  d040                          ADD.w     D0,D0
002a94  3233 0000                     MOVE.w    $00(A3,D0),D1
002a98  4ef3 1000                     JMP       $00(A3,D1)
        op_cb6c:                      ; bit 5,h
002a9c  0815 0005                     BTST      #$05,(A5)
002aa0  57c3                          SEQ       D3
002aa2  1019                          MOVE.b    (A1)+,D0
002aa4  d040                          ADD.w     D0,D0
002aa6  3233 0000                     MOVE.w    $00(A3,D0),D1
002aaa  4ef3 1000                     JMP       $00(A3,D1)
        op_cb6d:                      ; bit 5,l
002aae  082d 0005 0001                BTST      #$05,$0001(A5)
002ab4  57c3                          SEQ       D3
002ab6  1019                          MOVE.b    (A1)+,D0
002ab8  d040                          ADD.w     D0,D0
002aba  3233 0000                     MOVE.w    $00(A3,D0),D1
002abe  4ef3 1000                     JMP       $00(A3,D1)
        op_cb6e:                      ; bit 5,(hl)
002ac2  3215                          MOVE.w    (A5),D1
002ac4  0836 0005 1800                BTST      #$05,$00(A6,D1.l)
002aca  57c3                          SEQ       D3
002acc  1019                          MOVE.b    (A1)+,D0
002ace  d040                          ADD.w     D0,D0
002ad0  3233 0000                     MOVE.w    $00(A3,D0),D1
002ad4  4ef3 1000                     JMP       $00(A3,D1)
        op_cb6f:                      ; bit 5,a
002ad8  0807 0005                     BTST      #$05,D7
002adc  57c3                          SEQ       D3
002ade  1019                          MOVE.b    (A1)+,D0
002ae0  d040                          ADD.w     D0,D0
002ae2  3233 0000                     MOVE.w    $00(A3,D0),D1
002ae6  4ef3 1000                     JMP       $00(A3,D1)
        op_cb70:                      ; bit 6,b
002aea  082d 0006 0004                BTST      #$06,$0004(A5)
002af0  57c3                          SEQ       D3
002af2  1019                          MOVE.b    (A1)+,D0
002af4  d040                          ADD.w     D0,D0
002af6  3233 0000                     MOVE.w    $00(A3,D0),D1
002afa  4ef3 1000                     JMP       $00(A3,D1)
        op_cb71:                      ; bit 6,c
002afe  082d 0006 0005                BTST      #$06,$0005(A5)
002b04  57c3                          SEQ       D3
002b06  1019                          MOVE.b    (A1)+,D0
002b08  d040                          ADD.w     D0,D0
002b0a  3233 0000                     MOVE.w    $00(A3,D0),D1
002b0e  4ef3 1000                     JMP       $00(A3,D1)
        op_cb72:                      ; bit 6,d
002b12  082d 0006 0002                BTST      #$06,$0002(A5)
002b18  57c3                          SEQ       D3
002b1a  1019                          MOVE.b    (A1)+,D0
002b1c  d040                          ADD.w     D0,D0
002b1e  3233 0000                     MOVE.w    $00(A3,D0),D1
002b22  4ef3 1000                     JMP       $00(A3,D1)
        op_cb73:                      ; bit 6,e
002b26  082d 0006 0003                BTST      #$06,$0003(A5)
002b2c  57c3                          SEQ       D3
002b2e  1019                          MOVE.b    (A1)+,D0
002b30  d040                          ADD.w     D0,D0
002b32  3233 0000                     MOVE.w    $00(A3,D0),D1
002b36  4ef3 1000                     JMP       $00(A3,D1)
        op_cb74:                      ; bit 6,h
002b3a  0815 0006                     BTST      #$06,(A5)
002b3e  57c3                          SEQ       D3
002b40  1019                          MOVE.b    (A1)+,D0
002b42  d040                          ADD.w     D0,D0
002b44  3233 0000                     MOVE.w    $00(A3,D0),D1
002b48  4ef3 1000                     JMP       $00(A3,D1)
        op_cb75:                      ; bit 6,l
002b4c  082d 0006 0001                BTST      #$06,$0001(A5)
002b52  57c3                          SEQ       D3
002b54  1019                          MOVE.b    (A1)+,D0
002b56  d040                          ADD.w     D0,D0
002b58  3233 0000                     MOVE.w    $00(A3,D0),D1
002b5c  4ef3 1000                     JMP       $00(A3,D1)
        op_cb76:                      ; bit 6,(hl)
002b60  3215                          MOVE.w    (A5),D1
002b62  0836 0006 1800                BTST      #$06,$00(A6,D1.l)
002b68  57c3                          SEQ       D3
002b6a  1019                          MOVE.b    (A1)+,D0
002b6c  d040                          ADD.w     D0,D0
002b6e  3233 0000                     MOVE.w    $00(A3,D0),D1
002b72  4ef3 1000                     JMP       $00(A3,D1)
        op_cb77:                      ; bit 6,a
002b76  0807 0006                     BTST      #$06,D7
002b7a  57c3                          SEQ       D3
002b7c  1019                          MOVE.b    (A1)+,D0
002b7e  d040                          ADD.w     D0,D0
002b80  3233 0000                     MOVE.w    $00(A3,D0),D1
002b84  4ef3 1000                     JMP       $00(A3,D1)
        op_cb78:                      ; bit 7,b
002b88  4a2d 0004                     TST.b     $0004(A5)
002b8c  5ac3                          SPL       D3
002b8e  1019                          MOVE.b    (A1)+,D0
002b90  d040                          ADD.w     D0,D0
002b92  3233 0000                     MOVE.w    $00(A3,D0),D1
002b96  4ef3 1000                     JMP       $00(A3,D1)
        op_cb79:                      ; bit 7,c
002b9a  4a2d 0005                     TST.b     $0005(A5)
002b9e  5ac3                          SPL       D3
002ba0  1019                          MOVE.b    (A1)+,D0
002ba2  d040                          ADD.w     D0,D0
002ba4  3233 0000                     MOVE.w    $00(A3,D0),D1
002ba8  4ef3 1000                     JMP       $00(A3,D1)
        op_cb7a:                      ; bit 7,d
002bac  4a2d 0002                     TST.b     $0002(A5)
002bb0  5ac3                          SPL       D3
002bb2  1019                          MOVE.b    (A1)+,D0
002bb4  d040                          ADD.w     D0,D0
002bb6  3233 0000                     MOVE.w    $00(A3,D0),D1
002bba  4ef3 1000                     JMP       $00(A3,D1)
        op_cb7b:                      ; bit 7,e
002bbe  4a2d 0003                     TST.b     $0003(A5)
002bc2  5ac3                          SPL       D3
002bc4  1019                          MOVE.b    (A1)+,D0
002bc6  d040                          ADD.w     D0,D0
002bc8  3233 0000                     MOVE.w    $00(A3,D0),D1
002bcc  4ef3 1000                     JMP       $00(A3,D1)
        op_cb7c:                      ; bit 7,h
002bd0  4a15                          TST.b     (A5)
002bd2  5ac3                          SPL       D3
002bd4  1019                          MOVE.b    (A1)+,D0
002bd6  d040                          ADD.w     D0,D0
002bd8  3233 0000                     MOVE.w    $00(A3,D0),D1
002bdc  4ef3 1000                     JMP       $00(A3,D1)
        op_cb7d:                      ; bit 7,l
002be0  4a2d 0001                     TST.b     $0001(A5)
002be4  5ac3                          SPL       D3
002be6  1019                          MOVE.b    (A1)+,D0
002be8  d040                          ADD.w     D0,D0
002bea  3233 0000                     MOVE.w    $00(A3,D0),D1
002bee  4ef3 1000                     JMP       $00(A3,D1)
        op_cb7e:                      ; bit 7,(hl)
002bf2  3215                          MOVE.w    (A5),D1
002bf4  4a36 1800                     TST.b     $00(A6,D1.l)
002bf8  5ac3                          SPL       D3
002bfa  1019                          MOVE.b    (A1)+,D0
002bfc  d040                          ADD.w     D0,D0
002bfe  3233 0000                     MOVE.w    $00(A3,D0),D1
002c02  4ef3 1000                     JMP       $00(A3,D1)
        op_cb7f:                      ; bit 7,a
002c06  4a07                          TST.b     D7
002c08  5ac3                          SPL       D3
002c0a  1019                          MOVE.b    (A1)+,D0
002c0c  d040                          ADD.w     D0,D0
002c0e  3233 0000                     MOVE.w    $00(A3,D0),D1
002c12  4ef3 1000                     JMP       $00(A3,D1)
        op_cb80:                      ; res 0,b
002c16  08ad 0000 0004                BCLR      #$00,$0004(A5)
002c1c  4240                          CLR.w     D0
002c1e  1019                          MOVE.b    (A1)+,D0
002c20  d040                          ADD.w     D0,D0
002c22  3233 0000                     MOVE.w    $00(A3,D0),D1
002c26  4ef3 1000                     JMP       $00(A3,D1)
        op_cb81:                      ; res 0,c
002c2a  08ad 0000 0005                BCLR      #$00,$0005(A5)
002c30  4240                          CLR.w     D0
002c32  1019                          MOVE.b    (A1)+,D0
002c34  d040                          ADD.w     D0,D0
002c36  3233 0000                     MOVE.w    $00(A3,D0),D1
002c3a  4ef3 1000                     JMP       $00(A3,D1)
        op_cb82:                      ; res 0,d
002c3e  08ad 0000 0002                BCLR      #$00,$0002(A5)
002c44  4240                          CLR.w     D0
002c46  1019                          MOVE.b    (A1)+,D0
002c48  d040                          ADD.w     D0,D0
002c4a  3233 0000                     MOVE.w    $00(A3,D0),D1
002c4e  4ef3 1000                     JMP       $00(A3,D1)
        op_cb83:                      ; res 0,e
002c52  08ad 0000 0003                BCLR      #$00,$0003(A5)
002c58  4240                          CLR.w     D0
002c5a  1019                          MOVE.b    (A1)+,D0
002c5c  d040                          ADD.w     D0,D0
002c5e  3233 0000                     MOVE.w    $00(A3,D0),D1
002c62  4ef3 1000                     JMP       $00(A3,D1)
        op_cb84:                      ; res 0,h
002c66  0895 0000                     BCLR      #$00,(A5)
002c6a  4240                          CLR.w     D0
002c6c  1019                          MOVE.b    (A1)+,D0
002c6e  d040                          ADD.w     D0,D0
002c70  3233 0000                     MOVE.w    $00(A3,D0),D1
002c74  4ef3 1000                     JMP       $00(A3,D1)
        op_cb85:                      ; res 0,l
002c78  08ad 0000 0001                BCLR      #$00,$0001(A5)
002c7e  4240                          CLR.w     D0
002c80  1019                          MOVE.b    (A1)+,D0
002c82  d040                          ADD.w     D0,D0
002c84  3233 0000                     MOVE.w    $00(A3,D0),D1
002c88  4ef3 1000                     JMP       $00(A3,D1)
        op_cb86:                      ; res 0,(hl)
002c8c  3215                          MOVE.w    (A5),D1
002c8e  08b6 0000 1800                BCLR      #$00,$00(A6,D1.l)
002c94  4240                          CLR.w     D0
002c96  1019                          MOVE.b    (A1)+,D0
002c98  d040                          ADD.w     D0,D0
002c9a  3233 0000                     MOVE.w    $00(A3,D0),D1
002c9e  4ef3 1000                     JMP       $00(A3,D1)
        op_cb87:                      ; res 0,a
002ca2  ce3c 00fe                     AND.b     #$00fe,D7
002ca6  4240                          CLR.w     D0
002ca8  1019                          MOVE.b    (A1)+,D0
002caa  d040                          ADD.w     D0,D0
002cac  3233 0000                     MOVE.w    $00(A3,D0),D1
002cb0  4ef3 1000                     JMP       $00(A3,D1)
        op_cb88:                      ; res 1,b
002cb4  08ad 0001 0004                BCLR      #$01,$0004(A5)
002cba  4240                          CLR.w     D0
002cbc  1019                          MOVE.b    (A1)+,D0
002cbe  d040                          ADD.w     D0,D0
002cc0  3233 0000                     MOVE.w    $00(A3,D0),D1
002cc4  4ef3 1000                     JMP       $00(A3,D1)
        op_cb89:                      ; res 1,c
002cc8  08ad 0001 0005                BCLR      #$01,$0005(A5)
002cce  4240                          CLR.w     D0
002cd0  1019                          MOVE.b    (A1)+,D0
002cd2  d040                          ADD.w     D0,D0
002cd4  3233 0000                     MOVE.w    $00(A3,D0),D1
002cd8  4ef3 1000                     JMP       $00(A3,D1)
        op_cb8a:                      ; res 1,d
002cdc  08ad 0001 0002                BCLR      #$01,$0002(A5)
002ce2  4240                          CLR.w     D0
002ce4  1019                          MOVE.b    (A1)+,D0
002ce6  d040                          ADD.w     D0,D0
002ce8  3233 0000                     MOVE.w    $00(A3,D0),D1
002cec  4ef3 1000                     JMP       $00(A3,D1)
        op_cb8b:                      ; res 1,e
002cf0  08ad 0001 0003                BCLR      #$01,$0003(A5)
002cf6  4240                          CLR.w     D0
002cf8  1019                          MOVE.b    (A1)+,D0
002cfa  d040                          ADD.w     D0,D0
002cfc  3233 0000                     MOVE.w    $00(A3,D0),D1
002d00  4ef3 1000                     JMP       $00(A3,D1)
        op_cb8c:                      ; res 1,h
002d04  0895 0001                     BCLR      #$01,(A5)
002d08  4240                          CLR.w     D0
002d0a  1019                          MOVE.b    (A1)+,D0
002d0c  d040                          ADD.w     D0,D0
002d0e  3233 0000                     MOVE.w    $00(A3,D0),D1
002d12  4ef3 1000                     JMP       $00(A3,D1)
        op_cb8d:                      ; res 1,l
002d16  08ad 0001 0001                BCLR      #$01,$0001(A5)
002d1c  4240                          CLR.w     D0
002d1e  1019                          MOVE.b    (A1)+,D0
002d20  d040                          ADD.w     D0,D0
002d22  3233 0000                     MOVE.w    $00(A3,D0),D1
002d26  4ef3 1000                     JMP       $00(A3,D1)
        op_cb8e:                      ; res 1,(hl)
002d2a  3215                          MOVE.w    (A5),D1
002d2c  08b6 0001 1800                BCLR      #$01,$00(A6,D1.l)
002d32  4240                          CLR.w     D0
002d34  1019                          MOVE.b    (A1)+,D0
002d36  d040                          ADD.w     D0,D0
002d38  3233 0000                     MOVE.w    $00(A3,D0),D1
002d3c  4ef3 1000                     JMP       $00(A3,D1)
        op_cb8f:                      ; res 1,a
002d40  ce3c 00fd                     AND.b     #$00fd,D7
002d44  4240                          CLR.w     D0
002d46  1019                          MOVE.b    (A1)+,D0
002d48  d040                          ADD.w     D0,D0
002d4a  3233 0000                     MOVE.w    $00(A3,D0),D1
002d4e  4ef3 1000                     JMP       $00(A3,D1)
        op_cb90:                      ; res 2,b
002d52  08ad 0002 0004                BCLR      #$02,$0004(A5)
002d58  4240                          CLR.w     D0
002d5a  1019                          MOVE.b    (A1)+,D0
002d5c  d040                          ADD.w     D0,D0
002d5e  3233 0000                     MOVE.w    $00(A3,D0),D1
002d62  4ef3 1000                     JMP       $00(A3,D1)
        op_cb91:                      ; res 2,c
002d66  08ad 0002 0005                BCLR      #$02,$0005(A5)
002d6c  4240                          CLR.w     D0
002d6e  1019                          MOVE.b    (A1)+,D0
002d70  d040                          ADD.w     D0,D0
002d72  3233 0000                     MOVE.w    $00(A3,D0),D1
002d76  4ef3 1000                     JMP       $00(A3,D1)
        op_cb92:                      ; res 2,d
002d7a  08ad 0002 0002                BCLR      #$02,$0002(A5)
002d80  4240                          CLR.w     D0
002d82  1019                          MOVE.b    (A1)+,D0
002d84  d040                          ADD.w     D0,D0
002d86  3233 0000                     MOVE.w    $00(A3,D0),D1
002d8a  4ef3 1000                     JMP       $00(A3,D1)
        op_cb93:                      ; res 2,e
002d8e  08ad 0002 0003                BCLR      #$02,$0003(A5)
002d94  4240                          CLR.w     D0
002d96  1019                          MOVE.b    (A1)+,D0
002d98  d040                          ADD.w     D0,D0
002d9a  3233 0000                     MOVE.w    $00(A3,D0),D1
002d9e  4ef3 1000                     JMP       $00(A3,D1)
        op_cb94:                      ; res 2,h
002da2  0895 0002                     BCLR      #$02,(A5)
002da6  4240                          CLR.w     D0
002da8  1019                          MOVE.b    (A1)+,D0
002daa  d040                          ADD.w     D0,D0
002dac  3233 0000                     MOVE.w    $00(A3,D0),D1
002db0  4ef3 1000                     JMP       $00(A3,D1)
        op_cb95:                      ; res 2,l
002db4  08ad 0002 0001                BCLR      #$02,$0001(A5)
002dba  4240                          CLR.w     D0
002dbc  1019                          MOVE.b    (A1)+,D0
002dbe  d040                          ADD.w     D0,D0
002dc0  3233 0000                     MOVE.w    $00(A3,D0),D1
002dc4  4ef3 1000                     JMP       $00(A3,D1)
        op_cb96:                      ; res 2,(hl)
002dc8  3215                          MOVE.w    (A5),D1
002dca  08b6 0002 1800                BCLR      #$02,$00(A6,D1.l)
002dd0  4240                          CLR.w     D0
002dd2  1019                          MOVE.b    (A1)+,D0
002dd4  d040                          ADD.w     D0,D0
002dd6  3233 0000                     MOVE.w    $00(A3,D0),D1
002dda  4ef3 1000                     JMP       $00(A3,D1)
        op_cb97:                      ; res 2,a
002dde  ce3c 00fb                     AND.b     #$00fb,D7
002de2  4240                          CLR.w     D0
002de4  1019                          MOVE.b    (A1)+,D0
002de6  d040                          ADD.w     D0,D0
002de8  3233 0000                     MOVE.w    $00(A3,D0),D1
002dec  4ef3 1000                     JMP       $00(A3,D1)
        op_cb98:                      ; res 3,b
002df0  08ad 0003 0004                BCLR      #$03,$0004(A5)
002df6  4240                          CLR.w     D0
002df8  1019                          MOVE.b    (A1)+,D0
002dfa  d040                          ADD.w     D0,D0
002dfc  3233 0000                     MOVE.w    $00(A3,D0),D1
002e00  4ef3 1000                     JMP       $00(A3,D1)
        op_cb99:                      ; res 3,c
002e04  08ad 0003 0005                BCLR      #$03,$0005(A5)
002e0a  4240                          CLR.w     D0
002e0c  1019                          MOVE.b    (A1)+,D0
002e0e  d040                          ADD.w     D0,D0
002e10  3233 0000                     MOVE.w    $00(A3,D0),D1
002e14  4ef3 1000                     JMP       $00(A3,D1)
        op_cb9a:                      ; res 3,d
002e18  08ad 0003 0002                BCLR      #$03,$0002(A5)
002e1e  4240                          CLR.w     D0
002e20  1019                          MOVE.b    (A1)+,D0
002e22  d040                          ADD.w     D0,D0
002e24  3233 0000                     MOVE.w    $00(A3,D0),D1
002e28  4ef3 1000                     JMP       $00(A3,D1)
        op_cb9b:                      ; res 3,e
002e2c  08ad 0003 0003                BCLR      #$03,$0003(A5)
002e32  4240                          CLR.w     D0
002e34  1019                          MOVE.b    (A1)+,D0
002e36  d040                          ADD.w     D0,D0
002e38  3233 0000                     MOVE.w    $00(A3,D0),D1
002e3c  4ef3 1000                     JMP       $00(A3,D1)
        op_cb9c:                      ; res 3,h
002e40  0895 0003                     BCLR      #$03,(A5)
002e44  4240                          CLR.w     D0
002e46  1019                          MOVE.b    (A1)+,D0
002e48  d040                          ADD.w     D0,D0
002e4a  3233 0000                     MOVE.w    $00(A3,D0),D1
002e4e  4ef3 1000                     JMP       $00(A3,D1)
        op_cb9d:                      ; res 3,l
002e52  08ad 0003 0001                BCLR      #$03,$0001(A5)
002e58  4240                          CLR.w     D0
002e5a  1019                          MOVE.b    (A1)+,D0
002e5c  d040                          ADD.w     D0,D0
002e5e  3233 0000                     MOVE.w    $00(A3,D0),D1
002e62  4ef3 1000                     JMP       $00(A3,D1)
        op_cb9e:                      ; res 3,(hl)
002e66  3215                          MOVE.w    (A5),D1
002e68  08b6 0003 1800                BCLR      #$03,$00(A6,D1.l)
002e6e  4240                          CLR.w     D0
002e70  1019                          MOVE.b    (A1)+,D0
002e72  d040                          ADD.w     D0,D0
002e74  3233 0000                     MOVE.w    $00(A3,D0),D1
002e78  4ef3 1000                     JMP       $00(A3,D1)
        op_cb9f:                      ; res 3,a
002e7c  ce3c 00f7                     AND.b     #$00f7,D7
002e80  4240                          CLR.w     D0
002e82  1019                          MOVE.b    (A1)+,D0
002e84  d040                          ADD.w     D0,D0
002e86  3233 0000                     MOVE.w    $00(A3,D0),D1
002e8a  4ef3 1000                     JMP       $00(A3,D1)
        op_cba0:                      ; res 4,b
002e8e  08ad 0004 0004                BCLR      #$04,$0004(A5)
002e94  4240                          CLR.w     D0
002e96  1019                          MOVE.b    (A1)+,D0
002e98  d040                          ADD.w     D0,D0
002e9a  3233 0000                     MOVE.w    $00(A3,D0),D1
002e9e  4ef3 1000                     JMP       $00(A3,D1)
        op_cba1:                      ; res 4,c
002ea2  08ad 0004 0005                BCLR      #$04,$0005(A5)
002ea8  4240                          CLR.w     D0
002eaa  1019                          MOVE.b    (A1)+,D0
002eac  d040                          ADD.w     D0,D0
002eae  3233 0000                     MOVE.w    $00(A3,D0),D1
002eb2  4ef3 1000                     JMP       $00(A3,D1)
        op_cba2:                      ; res 4,d
002eb6  08ad 0004 0002                BCLR      #$04,$0002(A5)
002ebc  4240                          CLR.w     D0
002ebe  1019                          MOVE.b    (A1)+,D0
002ec0  d040                          ADD.w     D0,D0
002ec2  3233 0000                     MOVE.w    $00(A3,D0),D1
002ec6  4ef3 1000                     JMP       $00(A3,D1)
        op_cba3:                      ; res 4,e
002eca  08ad 0004 0003                BCLR      #$04,$0003(A5)
002ed0  4240                          CLR.w     D0
002ed2  1019                          MOVE.b    (A1)+,D0
002ed4  d040                          ADD.w     D0,D0
002ed6  3233 0000                     MOVE.w    $00(A3,D0),D1
002eda  4ef3 1000                     JMP       $00(A3,D1)
        op_cba4:                      ; res 4,h
002ede  0895 0004                     BCLR      #$04,(A5)
002ee2  4240                          CLR.w     D0
002ee4  1019                          MOVE.b    (A1)+,D0
002ee6  d040                          ADD.w     D0,D0
002ee8  3233 0000                     MOVE.w    $00(A3,D0),D1
002eec  4ef3 1000                     JMP       $00(A3,D1)
        op_cba5:                      ; res 4,l
002ef0  08ad 0004 0001                BCLR      #$04,$0001(A5)
002ef6  4240                          CLR.w     D0
002ef8  1019                          MOVE.b    (A1)+,D0
002efa  d040                          ADD.w     D0,D0
002efc  3233 0000                     MOVE.w    $00(A3,D0),D1
002f00  4ef3 1000                     JMP       $00(A3,D1)
        op_cba6:                      ; res 4,(hl)
002f04  3215                          MOVE.w    (A5),D1
002f06  08b6 0004 1800                BCLR      #$04,$00(A6,D1.l)
002f0c  4240                          CLR.w     D0
002f0e  1019                          MOVE.b    (A1)+,D0
002f10  d040                          ADD.w     D0,D0
002f12  3233 0000                     MOVE.w    $00(A3,D0),D1
002f16  4ef3 1000                     JMP       $00(A3,D1)
        op_cba7:                      ; res 4,a
002f1a  ce3c 00ef                     AND.b     #$00ef,D7
002f1e  4240                          CLR.w     D0
002f20  1019                          MOVE.b    (A1)+,D0
002f22  d040                          ADD.w     D0,D0
002f24  3233 0000                     MOVE.w    $00(A3,D0),D1
002f28  4ef3 1000                     JMP       $00(A3,D1)
        op_cba8:                      ; res 5,b
002f2c  08ad 0005 0004                BCLR      #$05,$0004(A5)
002f32  4240                          CLR.w     D0
002f34  1019                          MOVE.b    (A1)+,D0
002f36  d040                          ADD.w     D0,D0
002f38  3233 0000                     MOVE.w    $00(A3,D0),D1
002f3c  4ef3 1000                     JMP       $00(A3,D1)
        op_cba9:                      ; res 5,c
002f40  08ad 0005 0005                BCLR      #$05,$0005(A5)
002f46  4240                          CLR.w     D0
002f48  1019                          MOVE.b    (A1)+,D0
002f4a  d040                          ADD.w     D0,D0
002f4c  3233 0000                     MOVE.w    $00(A3,D0),D1
002f50  4ef3 1000                     JMP       $00(A3,D1)
        op_cbaa:                      ; res 5,d
002f54  08ad 0005 0002                BCLR      #$05,$0002(A5)
002f5a  4240                          CLR.w     D0
002f5c  1019                          MOVE.b    (A1)+,D0
002f5e  d040                          ADD.w     D0,D0
002f60  3233 0000                     MOVE.w    $00(A3,D0),D1
002f64  4ef3 1000                     JMP       $00(A3,D1)
        op_cbab:                      ; res 5,e
002f68  08ad 0005 0003                BCLR      #$05,$0003(A5)
002f6e  4240                          CLR.w     D0
002f70  1019                          MOVE.b    (A1)+,D0
002f72  d040                          ADD.w     D0,D0
002f74  3233 0000                     MOVE.w    $00(A3,D0),D1
002f78  4ef3 1000                     JMP       $00(A3,D1)
        op_cbac:                      ; res 5,h
002f7c  0895 0005                     BCLR      #$05,(A5)
002f80  4240                          CLR.w     D0
002f82  1019                          MOVE.b    (A1)+,D0
002f84  d040                          ADD.w     D0,D0
002f86  3233 0000                     MOVE.w    $00(A3,D0),D1
002f8a  4ef3 1000                     JMP       $00(A3,D1)
        op_cbad:                      ; res 5,l
002f8e  08ad 0005 0001                BCLR      #$05,$0001(A5)
002f94  4240                          CLR.w     D0
002f96  1019                          MOVE.b    (A1)+,D0
002f98  d040                          ADD.w     D0,D0
002f9a  3233 0000                     MOVE.w    $00(A3,D0),D1
002f9e  4ef3 1000                     JMP       $00(A3,D1)
        op_cbae:                      ; res 5,(hl)
002fa2  3215                          MOVE.w    (A5),D1
002fa4  08b6 0005 1800                BCLR      #$05,$00(A6,D1.l)
002faa  4240                          CLR.w     D0
002fac  1019                          MOVE.b    (A1)+,D0
002fae  d040                          ADD.w     D0,D0
002fb0  3233 0000                     MOVE.w    $00(A3,D0),D1
002fb4  4ef3 1000                     JMP       $00(A3,D1)
        op_cbaf:                      ; res 5,a
002fb8  ce3c 00df                     AND.b     #$00df,D7
002fbc  4240                          CLR.w     D0
002fbe  1019                          MOVE.b    (A1)+,D0
002fc0  d040                          ADD.w     D0,D0
002fc2  3233 0000                     MOVE.w    $00(A3,D0),D1
002fc6  4ef3 1000                     JMP       $00(A3,D1)
        op_cbb0:                      ; res 6,b
002fca  08ad 0006 0004                BCLR      #$06,$0004(A5)
002fd0  4240                          CLR.w     D0
002fd2  1019                          MOVE.b    (A1)+,D0
002fd4  d040                          ADD.w     D0,D0
002fd6  3233 0000                     MOVE.w    $00(A3,D0),D1
002fda  4ef3 1000                     JMP       $00(A3,D1)
        op_cbb1:                      ; res 6,c
002fde  08ad 0006 0005                BCLR      #$06,$0005(A5)
002fe4  4240                          CLR.w     D0
002fe6  1019                          MOVE.b    (A1)+,D0
002fe8  d040                          ADD.w     D0,D0
002fea  3233 0000                     MOVE.w    $00(A3,D0),D1
002fee  4ef3 1000                     JMP       $00(A3,D1)
        op_cbb2:                      ; res 6,d
002ff2  08ad 0006 0002                BCLR      #$06,$0002(A5)
002ff8  4240                          CLR.w     D0
002ffa  1019                          MOVE.b    (A1)+,D0
002ffc  d040                          ADD.w     D0,D0
002ffe  3233 0000                     MOVE.w    $00(A3,D0),D1
003002  4ef3 1000                     JMP       $00(A3,D1)
        op_cbb3:                      ; res 6,e
003006  08ad 0006 0003                BCLR      #$06,$0003(A5)
00300c  4240                          CLR.w     D0
00300e  1019                          MOVE.b    (A1)+,D0
003010  d040                          ADD.w     D0,D0
003012  3233 0000                     MOVE.w    $00(A3,D0),D1
003016  4ef3 1000                     JMP       $00(A3,D1)
        op_cbb4:                      ; res 6,h
00301a  0895 0006                     BCLR      #$06,(A5)
00301e  4240                          CLR.w     D0
003020  1019                          MOVE.b    (A1)+,D0
003022  d040                          ADD.w     D0,D0
003024  3233 0000                     MOVE.w    $00(A3,D0),D1
003028  4ef3 1000                     JMP       $00(A3,D1)
        op_cbb5:                      ; res 6,l
00302c  08ad 0006 0001                BCLR      #$06,$0001(A5)
003032  4240                          CLR.w     D0
003034  1019                          MOVE.b    (A1)+,D0
003036  d040                          ADD.w     D0,D0
003038  3233 0000                     MOVE.w    $00(A3,D0),D1
00303c  4ef3 1000                     JMP       $00(A3,D1)
        op_cbb6:                      ; res 6,(hl)
003040  3215                          MOVE.w    (A5),D1
003042  08b6 0006 1800                BCLR      #$06,$00(A6,D1.l)
003048  4240                          CLR.w     D0
00304a  1019                          MOVE.b    (A1)+,D0
00304c  d040                          ADD.w     D0,D0
00304e  3233 0000                     MOVE.w    $00(A3,D0),D1
003052  4ef3 1000                     JMP       $00(A3,D1)
        op_cbb7:                      ; res 6,a
003056  ce3c 00bf                     AND.b     #$00bf,D7
00305a  4240                          CLR.w     D0
00305c  1019                          MOVE.b    (A1)+,D0
00305e  d040                          ADD.w     D0,D0
003060  3233 0000                     MOVE.w    $00(A3,D0),D1
003064  4ef3 1000                     JMP       $00(A3,D1)
        op_cbb8:                      ; res 7,b
003068  08ad 0007 0004                BCLR      #$07,$0004(A5)
00306e  4240                          CLR.w     D0
003070  1019                          MOVE.b    (A1)+,D0
003072  d040                          ADD.w     D0,D0
003074  3233 0000                     MOVE.w    $00(A3,D0),D1
003078  4ef3 1000                     JMP       $00(A3,D1)
        op_cbb9:                      ; res 7,c
00307c  08ad 0007 0005                BCLR      #$07,$0005(A5)
003082  4240                          CLR.w     D0
003084  1019                          MOVE.b    (A1)+,D0
003086  d040                          ADD.w     D0,D0
003088  3233 0000                     MOVE.w    $00(A3,D0),D1
00308c  4ef3 1000                     JMP       $00(A3,D1)
        op_cbba:                      ; res 7,d
003090  08ad 0007 0002                BCLR      #$07,$0002(A5)
003096  4240                          CLR.w     D0
003098  1019                          MOVE.b    (A1)+,D0
00309a  d040                          ADD.w     D0,D0
00309c  3233 0000                     MOVE.w    $00(A3,D0),D1
0030a0  4ef3 1000                     JMP       $00(A3,D1)
        op_cbbb:                      ; res 7,e
0030a4  08ad 0007 0003                BCLR      #$07,$0003(A5)
0030aa  4240                          CLR.w     D0
0030ac  1019                          MOVE.b    (A1)+,D0
0030ae  d040                          ADD.w     D0,D0
0030b0  3233 0000                     MOVE.w    $00(A3,D0),D1
0030b4  4ef3 1000                     JMP       $00(A3,D1)
        op_cbbc:                      ; res 7,h
0030b8  0895 0007                     BCLR      #$07,(A5)
0030bc  4240                          CLR.w     D0
0030be  1019                          MOVE.b    (A1)+,D0
0030c0  d040                          ADD.w     D0,D0
0030c2  3233 0000                     MOVE.w    $00(A3,D0),D1
0030c6  4ef3 1000                     JMP       $00(A3,D1)
        op_cbbd:                      ; res 7,l
0030ca  08ad 0007 0001                BCLR      #$07,$0001(A5)
0030d0  4240                          CLR.w     D0
0030d2  1019                          MOVE.b    (A1)+,D0
0030d4  d040                          ADD.w     D0,D0
0030d6  3233 0000                     MOVE.w    $00(A3,D0),D1
0030da  4ef3 1000                     JMP       $00(A3,D1)
        op_cbbe:                      ; res 7,(hl)
0030de  3215                          MOVE.w    (A5),D1
0030e0  08b6 0007 1800                BCLR      #$07,$00(A6,D1.l)
0030e6  4240                          CLR.w     D0
0030e8  1019                          MOVE.b    (A1)+,D0
0030ea  d040                          ADD.w     D0,D0
0030ec  3233 0000                     MOVE.w    $00(A3,D0),D1
0030f0  4ef3 1000                     JMP       $00(A3,D1)
        op_cbbf:                      ; res 7,a
0030f4  ce3c 007f                     AND.b     #$007f,D7
0030f8  4240                          CLR.w     D0
0030fa  1019                          MOVE.b    (A1)+,D0
0030fc  d040                          ADD.w     D0,D0
0030fe  3233 0000                     MOVE.w    $00(A3,D0),D1
003102  4ef3 1000                     JMP       $00(A3,D1)
        op_cbc0:                      ; set 0,b
003106  08ed 0000 0004                BSET      #$00,$0004(A5)
00310c  4240                          CLR.w     D0
00310e  1019                          MOVE.b    (A1)+,D0
003110  d040                          ADD.w     D0,D0
003112  3233 0000                     MOVE.w    $00(A3,D0),D1
003116  4ef3 1000                     JMP       $00(A3,D1)
        op_cbc1:                      ; set 0,c
00311a  08ed 0000 0005                BSET      #$00,$0005(A5)
003120  4240                          CLR.w     D0
003122  1019                          MOVE.b    (A1)+,D0
003124  d040                          ADD.w     D0,D0
003126  3233 0000                     MOVE.w    $00(A3,D0),D1
00312a  4ef3 1000                     JMP       $00(A3,D1)
        op_cbc2:                      ; set 0,d
00312e  08ed 0000 0002                BSET      #$00,$0002(A5)
003134  4240                          CLR.w     D0
003136  1019                          MOVE.b    (A1)+,D0
003138  d040                          ADD.w     D0,D0
00313a  3233 0000                     MOVE.w    $00(A3,D0),D1
00313e  4ef3 1000                     JMP       $00(A3,D1)
        op_cbc3:                      ; set 0,e
003142  08ed 0000 0003                BSET      #$00,$0003(A5)
003148  4240                          CLR.w     D0
00314a  1019                          MOVE.b    (A1)+,D0
00314c  d040                          ADD.w     D0,D0
00314e  3233 0000                     MOVE.w    $00(A3,D0),D1
003152  4ef3 1000                     JMP       $00(A3,D1)
        op_cbc4:                      ; set 0,h
003156  08d5 0000                     BSET      #$00,(A5)
00315a  4240                          CLR.w     D0
00315c  1019                          MOVE.b    (A1)+,D0
00315e  d040                          ADD.w     D0,D0
003160  3233 0000                     MOVE.w    $00(A3,D0),D1
003164  4ef3 1000                     JMP       $00(A3,D1)
        op_cbc5:                      ; set 0,l
003168  08ed 0000 0001                BSET      #$00,$0001(A5)
00316e  4240                          CLR.w     D0
003170  1019                          MOVE.b    (A1)+,D0
003172  d040                          ADD.w     D0,D0
003174  3233 0000                     MOVE.w    $00(A3,D0),D1
003178  4ef3 1000                     JMP       $00(A3,D1)
        op_cbc6:                      ; set 0,(hl)
00317c  3215                          MOVE.w    (A5),D1
00317e  08f6 0000 1800                BSET      #$00,$00(A6,D1.l)
003184  4240                          CLR.w     D0
003186  1019                          MOVE.b    (A1)+,D0
003188  d040                          ADD.w     D0,D0
00318a  3233 0000                     MOVE.w    $00(A3,D0),D1
00318e  4ef3 1000                     JMP       $00(A3,D1)
        op_cbc7:                      ; set 0,a
003192  8e3c 0001                     OR.b      #$0001,D7
003196  4240                          CLR.w     D0
003198  1019                          MOVE.b    (A1)+,D0
00319a  d040                          ADD.w     D0,D0
00319c  3233 0000                     MOVE.w    $00(A3,D0),D1
0031a0  4ef3 1000                     JMP       $00(A3,D1)
        op_cbc8:                      ; set 1,b
0031a4  08ed 0001 0004                BSET      #$01,$0004(A5)
0031aa  4240                          CLR.w     D0
0031ac  1019                          MOVE.b    (A1)+,D0
0031ae  d040                          ADD.w     D0,D0
0031b0  3233 0000                     MOVE.w    $00(A3,D0),D1
0031b4  4ef3 1000                     JMP       $00(A3,D1)
        op_cbc9:                      ; set 1,c
0031b8  08ed 0001 0005                BSET      #$01,$0005(A5)
0031be  4240                          CLR.w     D0
0031c0  1019                          MOVE.b    (A1)+,D0
0031c2  d040                          ADD.w     D0,D0
0031c4  3233 0000                     MOVE.w    $00(A3,D0),D1
0031c8  4ef3 1000                     JMP       $00(A3,D1)
        op_cbca:                      ; set 1,d
0031cc  08ed 0001 0002                BSET      #$01,$0002(A5)
0031d2  4240                          CLR.w     D0
0031d4  1019                          MOVE.b    (A1)+,D0
0031d6  d040                          ADD.w     D0,D0
0031d8  3233 0000                     MOVE.w    $00(A3,D0),D1
0031dc  4ef3 1000                     JMP       $00(A3,D1)
        op_cbcb:                      ; set 1,e
0031e0  08ed 0001 0003                BSET      #$01,$0003(A5)
0031e6  4240                          CLR.w     D0
0031e8  1019                          MOVE.b    (A1)+,D0
0031ea  d040                          ADD.w     D0,D0
0031ec  3233 0000                     MOVE.w    $00(A3,D0),D1
0031f0  4ef3 1000                     JMP       $00(A3,D1)
        op_cbcc:                      ; set 1,h
0031f4  08d5 0001                     BSET      #$01,(A5)
0031f8  4240                          CLR.w     D0
0031fa  1019                          MOVE.b    (A1)+,D0
0031fc  d040                          ADD.w     D0,D0
0031fe  3233 0000                     MOVE.w    $00(A3,D0),D1
003202  4ef3 1000                     JMP       $00(A3,D1)
        op_cbcd:                      ; set 1,l
003206  08ed 0001 0001                BSET      #$01,$0001(A5)
00320c  4240                          CLR.w     D0
00320e  1019                          MOVE.b    (A1)+,D0
003210  d040                          ADD.w     D0,D0
003212  3233 0000                     MOVE.w    $00(A3,D0),D1
003216  4ef3 1000                     JMP       $00(A3,D1)
        op_cbce:                      ; set 1,(hl)
00321a  3215                          MOVE.w    (A5),D1
00321c  08f6 0001 1800                BSET      #$01,$00(A6,D1.l)
003222  4240                          CLR.w     D0
003224  1019                          MOVE.b    (A1)+,D0
003226  d040                          ADD.w     D0,D0
003228  3233 0000                     MOVE.w    $00(A3,D0),D1
00322c  4ef3 1000                     JMP       $00(A3,D1)
        op_cbcf:                      ; set 1,a
003230  8e3c 0002                     OR.b      #$0002,D7
003234  4240                          CLR.w     D0
003236  1019                          MOVE.b    (A1)+,D0
003238  d040                          ADD.w     D0,D0
00323a  3233 0000                     MOVE.w    $00(A3,D0),D1
00323e  4ef3 1000                     JMP       $00(A3,D1)
        op_cbd0:                      ; set 2,b
003242  08ed 0002 0004                BSET      #$02,$0004(A5)
003248  4240                          CLR.w     D0
00324a  1019                          MOVE.b    (A1)+,D0
00324c  d040                          ADD.w     D0,D0
00324e  3233 0000                     MOVE.w    $00(A3,D0),D1
003252  4ef3 1000                     JMP       $00(A3,D1)
        op_cbd1:                      ; set 2,c
003256  08ed 0002 0005                BSET      #$02,$0005(A5)
00325c  4240                          CLR.w     D0
00325e  1019                          MOVE.b    (A1)+,D0
003260  d040                          ADD.w     D0,D0
003262  3233 0000                     MOVE.w    $00(A3,D0),D1
003266  4ef3 1000                     JMP       $00(A3,D1)
        op_cbd2:                      ; set 2,d
00326a  08ed 0002 0002                BSET      #$02,$0002(A5)
003270  4240                          CLR.w     D0
003272  1019                          MOVE.b    (A1)+,D0
003274  d040                          ADD.w     D0,D0
003276  3233 0000                     MOVE.w    $00(A3,D0),D1
00327a  4ef3 1000                     JMP       $00(A3,D1)
        op_cbd3:                      ; set 2,e
00327e  08ed 0002 0003                BSET      #$02,$0003(A5)
003284  4240                          CLR.w     D0
003286  1019                          MOVE.b    (A1)+,D0
003288  d040                          ADD.w     D0,D0
00328a  3233 0000                     MOVE.w    $00(A3,D0),D1
00328e  4ef3 1000                     JMP       $00(A3,D1)
        op_cbd4:                      ; set 2,h
003292  08d5 0002                     BSET      #$02,(A5)
003296  4240                          CLR.w     D0
003298  1019                          MOVE.b    (A1)+,D0
00329a  d040                          ADD.w     D0,D0
00329c  3233 0000                     MOVE.w    $00(A3,D0),D1
0032a0  4ef3 1000                     JMP       $00(A3,D1)
        op_cbd5:                      ; set 2,l
0032a4  08ed 0002 0001                BSET      #$02,$0001(A5)
0032aa  4240                          CLR.w     D0
0032ac  1019                          MOVE.b    (A1)+,D0
0032ae  d040                          ADD.w     D0,D0
0032b0  3233 0000                     MOVE.w    $00(A3,D0),D1
0032b4  4ef3 1000                     JMP       $00(A3,D1)
        op_cbd6:                      ; set 2,(hl)
0032b8  3215                          MOVE.w    (A5),D1
0032ba  08f6 0002 1800                BSET      #$02,$00(A6,D1.l)
0032c0  4240                          CLR.w     D0
0032c2  1019                          MOVE.b    (A1)+,D0
0032c4  d040                          ADD.w     D0,D0
0032c6  3233 0000                     MOVE.w    $00(A3,D0),D1
0032ca  4ef3 1000                     JMP       $00(A3,D1)
        op_cbd7:                      ; set 2,a
0032ce  8e3c 0004                     OR.b      #$0004,D7
0032d2  4240                          CLR.w     D0
0032d4  1019                          MOVE.b    (A1)+,D0
0032d6  d040                          ADD.w     D0,D0
0032d8  3233 0000                     MOVE.w    $00(A3,D0),D1
0032dc  4ef3 1000                     JMP       $00(A3,D1)
        op_cbd8:                      ; set 3,b
0032e0  08ed 0003 0004                BSET      #$03,$0004(A5)
0032e6  4240                          CLR.w     D0
0032e8  1019                          MOVE.b    (A1)+,D0
0032ea  d040                          ADD.w     D0,D0
0032ec  3233 0000                     MOVE.w    $00(A3,D0),D1
0032f0  4ef3 1000                     JMP       $00(A3,D1)
        op_cbd9:                      ; set 3,c
0032f4  08ed 0003 0005                BSET      #$03,$0005(A5)
0032fa  4240                          CLR.w     D0
0032fc  1019                          MOVE.b    (A1)+,D0
0032fe  d040                          ADD.w     D0,D0
003300  3233 0000                     MOVE.w    $00(A3,D0),D1
003304  4ef3 1000                     JMP       $00(A3,D1)
        op_cbda:                      ; set 3,d
003308  08ed 0003 0002                BSET      #$03,$0002(A5)
00330e  4240                          CLR.w     D0
003310  1019                          MOVE.b    (A1)+,D0
003312  d040                          ADD.w     D0,D0
003314  3233 0000                     MOVE.w    $00(A3,D0),D1
003318  4ef3 1000                     JMP       $00(A3,D1)
        op_cbdb:                      ; set 3,e
00331c  08ed 0003 0003                BSET      #$03,$0003(A5)
003322  4240                          CLR.w     D0
003324  1019                          MOVE.b    (A1)+,D0
003326  d040                          ADD.w     D0,D0
003328  3233 0000                     MOVE.w    $00(A3,D0),D1
00332c  4ef3 1000                     JMP       $00(A3,D1)
        op_cbdc:                      ; set 3,h
003330  08d5 0003                     BSET      #$03,(A5)
003334  4240                          CLR.w     D0
003336  1019                          MOVE.b    (A1)+,D0
003338  d040                          ADD.w     D0,D0
00333a  3233 0000                     MOVE.w    $00(A3,D0),D1
00333e  4ef3 1000                     JMP       $00(A3,D1)
        op_cbdd:                      ; set 3,l
003342  08ed 0003 0001                BSET      #$03,$0001(A5)
003348  4240                          CLR.w     D0
00334a  1019                          MOVE.b    (A1)+,D0
00334c  d040                          ADD.w     D0,D0
00334e  3233 0000                     MOVE.w    $00(A3,D0),D1
003352  4ef3 1000                     JMP       $00(A3,D1)
        op_cbde:                      ; set 3,(hl)
003356  3215                          MOVE.w    (A5),D1
003358  08f6 0003 1800                BSET      #$03,$00(A6,D1.l)
00335e  4240                          CLR.w     D0
003360  1019                          MOVE.b    (A1)+,D0
003362  d040                          ADD.w     D0,D0
003364  3233 0000                     MOVE.w    $00(A3,D0),D1
003368  4ef3 1000                     JMP       $00(A3,D1)
        op_cbdf:                      ; set 3,a
00336c  8e3c 0008                     OR.b      #$0008,D7
003370  4240                          CLR.w     D0
003372  1019                          MOVE.b    (A1)+,D0
003374  d040                          ADD.w     D0,D0
003376  3233 0000                     MOVE.w    $00(A3,D0),D1
00337a  4ef3 1000                     JMP       $00(A3,D1)
        op_cbe0:                      ; set 4,b
00337e  08ed 0004 0004                BSET      #$04,$0004(A5)
003384  4240                          CLR.w     D0
003386  1019                          MOVE.b    (A1)+,D0
003388  d040                          ADD.w     D0,D0
00338a  3233 0000                     MOVE.w    $00(A3,D0),D1
00338e  4ef3 1000                     JMP       $00(A3,D1)
        op_cbe1:                      ; set 4,c
003392  08ed 0004 0005                BSET      #$04,$0005(A5)
003398  4240                          CLR.w     D0
00339a  1019                          MOVE.b    (A1)+,D0
00339c  d040                          ADD.w     D0,D0
00339e  3233 0000                     MOVE.w    $00(A3,D0),D1
0033a2  4ef3 1000                     JMP       $00(A3,D1)
        op_cbe2:                      ; set 4,d
0033a6  08ed 0004 0002                BSET      #$04,$0002(A5)
0033ac  4240                          CLR.w     D0
0033ae  1019                          MOVE.b    (A1)+,D0
0033b0  d040                          ADD.w     D0,D0
0033b2  3233 0000                     MOVE.w    $00(A3,D0),D1
0033b6  4ef3 1000                     JMP       $00(A3,D1)
        op_cbe3:                      ; set 4,e
0033ba  08ed 0004 0003                BSET      #$04,$0003(A5)
0033c0  4240                          CLR.w     D0
0033c2  1019                          MOVE.b    (A1)+,D0
0033c4  d040                          ADD.w     D0,D0
0033c6  3233 0000                     MOVE.w    $00(A3,D0),D1
0033ca  4ef3 1000                     JMP       $00(A3,D1)
        op_cbe4:                      ; set 4,h
0033ce  08d5 0004                     BSET      #$04,(A5)
0033d2  4240                          CLR.w     D0
0033d4  1019                          MOVE.b    (A1)+,D0
0033d6  d040                          ADD.w     D0,D0
0033d8  3233 0000                     MOVE.w    $00(A3,D0),D1
0033dc  4ef3 1000                     JMP       $00(A3,D1)
        op_cbe5:                      ; set 4,l
0033e0  08ed 0004 0001                BSET      #$04,$0001(A5)
0033e6  4240                          CLR.w     D0
0033e8  1019                          MOVE.b    (A1)+,D0
0033ea  d040                          ADD.w     D0,D0
0033ec  3233 0000                     MOVE.w    $00(A3,D0),D1
0033f0  4ef3 1000                     JMP       $00(A3,D1)
        op_cbe6:                      ; set 4,(hl)
0033f4  3215                          MOVE.w    (A5),D1
0033f6  08f6 0004 1800                BSET      #$04,$00(A6,D1.l)
0033fc  4240                          CLR.w     D0
0033fe  1019                          MOVE.b    (A1)+,D0
003400  d040                          ADD.w     D0,D0
003402  3233 0000                     MOVE.w    $00(A3,D0),D1
003406  4ef3 1000                     JMP       $00(A3,D1)
        op_cbe7:                      ; set 4,a
00340a  8e3c 0010                     OR.b      #$0010,D7
00340e  4240                          CLR.w     D0
003410  1019                          MOVE.b    (A1)+,D0
003412  d040                          ADD.w     D0,D0
003414  3233 0000                     MOVE.w    $00(A3,D0),D1
003418  4ef3 1000                     JMP       $00(A3,D1)
        op_cbe8:                      ; set 5,b
00341c  08ed 0005 0004                BSET      #$05,$0004(A5)
003422  4240                          CLR.w     D0
003424  1019                          MOVE.b    (A1)+,D0
003426  d040                          ADD.w     D0,D0
003428  3233 0000                     MOVE.w    $00(A3,D0),D1
00342c  4ef3 1000                     JMP       $00(A3,D1)
        op_cbe9:                      ; set 5,c
003430  08ed 0005 0005                BSET      #$05,$0005(A5)
003436  4240                          CLR.w     D0
003438  1019                          MOVE.b    (A1)+,D0
00343a  d040                          ADD.w     D0,D0
00343c  3233 0000                     MOVE.w    $00(A3,D0),D1
003440  4ef3 1000                     JMP       $00(A3,D1)
        op_cbea:                      ; set 5,d
003444  08ed 0005 0002                BSET      #$05,$0002(A5)
00344a  4240                          CLR.w     D0
00344c  1019                          MOVE.b    (A1)+,D0
00344e  d040                          ADD.w     D0,D0
003450  3233 0000                     MOVE.w    $00(A3,D0),D1
003454  4ef3 1000                     JMP       $00(A3,D1)
        op_cbeb:                      ; set 5,e
003458  08ed 0005 0003                BSET      #$05,$0003(A5)
00345e  4240                          CLR.w     D0
003460  1019                          MOVE.b    (A1)+,D0
003462  d040                          ADD.w     D0,D0
003464  3233 0000                     MOVE.w    $00(A3,D0),D1
003468  4ef3 1000                     JMP       $00(A3,D1)
        op_cbec:                      ; set 5,h
00346c  08d5 0005                     BSET      #$05,(A5)
003470  4240                          CLR.w     D0
003472  1019                          MOVE.b    (A1)+,D0
003474  d040                          ADD.w     D0,D0
003476  3233 0000                     MOVE.w    $00(A3,D0),D1
00347a  4ef3 1000                     JMP       $00(A3,D1)
        op_cbed:                      ; set 5,l
00347e  08ed 0005 0001                BSET      #$05,$0001(A5)
003484  4240                          CLR.w     D0
003486  1019                          MOVE.b    (A1)+,D0
003488  d040                          ADD.w     D0,D0
00348a  3233 0000                     MOVE.w    $00(A3,D0),D1
00348e  4ef3 1000                     JMP       $00(A3,D1)
        op_cbee:                      ; set 5,(hl)
003492  3215                          MOVE.w    (A5),D1
003494  08f6 0005 1800                BSET      #$05,$00(A6,D1.l)
00349a  4240                          CLR.w     D0
00349c  1019                          MOVE.b    (A1)+,D0
00349e  d040                          ADD.w     D0,D0
0034a0  3233 0000                     MOVE.w    $00(A3,D0),D1
0034a4  4ef3 1000                     JMP       $00(A3,D1)
        op_cbef:                      ; set 5,a
0034a8  8e3c 0020                     OR.b      #$0020,D7
0034ac  4240                          CLR.w     D0
0034ae  1019                          MOVE.b    (A1)+,D0
0034b0  d040                          ADD.w     D0,D0
0034b2  3233 0000                     MOVE.w    $00(A3,D0),D1
0034b6  4ef3 1000                     JMP       $00(A3,D1)
        op_cbf0:                      ; set 6,b
0034ba  08ed 0006 0004                BSET      #$06,$0004(A5)
0034c0  4240                          CLR.w     D0
0034c2  1019                          MOVE.b    (A1)+,D0
0034c4  d040                          ADD.w     D0,D0
0034c6  3233 0000                     MOVE.w    $00(A3,D0),D1
0034ca  4ef3 1000                     JMP       $00(A3,D1)
        op_cbf1:                      ; set 6,c
0034ce  08ed 0006 0005                BSET      #$06,$0005(A5)
0034d4  4240                          CLR.w     D0
0034d6  1019                          MOVE.b    (A1)+,D0
0034d8  d040                          ADD.w     D0,D0
0034da  3233 0000                     MOVE.w    $00(A3,D0),D1
0034de  4ef3 1000                     JMP       $00(A3,D1)
        op_cbf2:                      ; set 6,d
0034e2  08ed 0006 0002                BSET      #$06,$0002(A5)
0034e8  4240                          CLR.w     D0
0034ea  1019                          MOVE.b    (A1)+,D0
0034ec  d040                          ADD.w     D0,D0
0034ee  3233 0000                     MOVE.w    $00(A3,D0),D1
0034f2  4ef3 1000                     JMP       $00(A3,D1)
        op_cbf3:                      ; set 6,e
0034f6  08ed 0006 0003                BSET      #$06,$0003(A5)
0034fc  4240                          CLR.w     D0
0034fe  1019                          MOVE.b    (A1)+,D0
003500  d040                          ADD.w     D0,D0
003502  3233 0000                     MOVE.w    $00(A3,D0),D1
003506  4ef3 1000                     JMP       $00(A3,D1)
        op_cbf4:                      ; set 6,h
00350a  08d5 0006                     BSET      #$06,(A5)
00350e  4240                          CLR.w     D0
003510  1019                          MOVE.b    (A1)+,D0
003512  d040                          ADD.w     D0,D0
003514  3233 0000                     MOVE.w    $00(A3,D0),D1
003518  4ef3 1000                     JMP       $00(A3,D1)
        op_cbf5:                      ; set 6,l
00351c  08ed 0006 0001                BSET      #$06,$0001(A5)
003522  4240                          CLR.w     D0
003524  1019                          MOVE.b    (A1)+,D0
003526  d040                          ADD.w     D0,D0
003528  3233 0000                     MOVE.w    $00(A3,D0),D1
00352c  4ef3 1000                     JMP       $00(A3,D1)
        op_cbf6:                      ; set 6,(hl)
003530  3215                          MOVE.w    (A5),D1
003532  08f6 0006 1800                BSET      #$06,$00(A6,D1.l)
003538  4240                          CLR.w     D0
00353a  1019                          MOVE.b    (A1)+,D0
00353c  d040                          ADD.w     D0,D0
00353e  3233 0000                     MOVE.w    $00(A3,D0),D1
003542  4ef3 1000                     JMP       $00(A3,D1)
        op_cbf7:                      ; set 6,a
003546  8e3c 0040                     OR.b      #$0040,D7
00354a  4240                          CLR.w     D0
00354c  1019                          MOVE.b    (A1)+,D0
00354e  d040                          ADD.w     D0,D0
003550  3233 0000                     MOVE.w    $00(A3,D0),D1
003554  4ef3 1000                     JMP       $00(A3,D1)
        op_cbf8:                      ; set 7,b
003558  08ed 0007 0004                BSET      #$07,$0004(A5)
00355e  4240                          CLR.w     D0
003560  1019                          MOVE.b    (A1)+,D0
003562  d040                          ADD.w     D0,D0
003564  3233 0000                     MOVE.w    $00(A3,D0),D1
003568  4ef3 1000                     JMP       $00(A3,D1)
        op_cbf9:                      ; set 7,c
00356c  08ed 0007 0005                BSET      #$07,$0005(A5)
003572  4240                          CLR.w     D0
003574  1019                          MOVE.b    (A1)+,D0
003576  d040                          ADD.w     D0,D0
003578  3233 0000                     MOVE.w    $00(A3,D0),D1
00357c  4ef3 1000                     JMP       $00(A3,D1)
        op_cbfa:                      ; set 7,d
003580  08ed 0007 0002                BSET      #$07,$0002(A5)
003586  4240                          CLR.w     D0
003588  1019                          MOVE.b    (A1)+,D0
00358a  d040                          ADD.w     D0,D0
00358c  3233 0000                     MOVE.w    $00(A3,D0),D1
003590  4ef3 1000                     JMP       $00(A3,D1)
        op_cbfb:                      ; set 7,e
003594  08ed 0007 0003                BSET      #$07,$0003(A5)
00359a  4240                          CLR.w     D0
00359c  1019                          MOVE.b    (A1)+,D0
00359e  d040                          ADD.w     D0,D0
0035a0  3233 0000                     MOVE.w    $00(A3,D0),D1
0035a4  4ef3 1000                     JMP       $00(A3,D1)
        op_cbfc:                      ; set 7,h
0035a8  08d5 0007                     BSET      #$07,(A5)
0035ac  4240                          CLR.w     D0
0035ae  1019                          MOVE.b    (A1)+,D0
0035b0  d040                          ADD.w     D0,D0
0035b2  3233 0000                     MOVE.w    $00(A3,D0),D1
0035b6  4ef3 1000                     JMP       $00(A3,D1)
        op_cbfd:                      ; set 7,l
0035ba  08ed 0007 0001                BSET      #$07,$0001(A5)
0035c0  4240                          CLR.w     D0
0035c2  1019                          MOVE.b    (A1)+,D0
0035c4  d040                          ADD.w     D0,D0
0035c6  3233 0000                     MOVE.w    $00(A3,D0),D1
0035ca  4ef3 1000                     JMP       $00(A3,D1)
        op_cbfe:                      ; set 7,(hl)
0035ce  3215                          MOVE.w    (A5),D1
0035d0  08f6 0007 1800                BSET      #$07,$00(A6,D1.l)
0035d6  4240                          CLR.w     D0
0035d8  1019                          MOVE.b    (A1)+,D0
0035da  d040                          ADD.w     D0,D0
0035dc  3233 0000                     MOVE.w    $00(A3,D0),D1
0035e0  4ef3 1000                     JMP       $00(A3,D1)
        op_cbff:                      ; set 7,a
0035e4  8e3c 0080                     OR.b      #$0080,D7
0035e8  4240                          CLR.w     D0
0035ea  1019                          MOVE.b    (A1)+,D0
0035ec  d040                          ADD.w     D0,D0
0035ee  3233 0000                     MOVE.w    $00(A3,D0),D1
0035f2  4ef3 1000                     JMP       $00(A3,D1)
        table_oped:
0035f6  ffff                          op_undefined - dc.w  table_oped
0035f8  ffff                          op_undefined - dc.w  table_oped
0035fa  ffff                          op_undefined - dc.w  table_oped
0035fc  ffff                          op_undefined - dc.w  table_oped
0035fe  ffff                          op_undefined - dc.w  table_oped
003600  ffff                          op_undefined - dc.w  table_oped
003602  ffff                          op_undefined - dc.w  table_oped
003604  ffff                          op_undefined - dc.w  table_oped
003606  ffff                          op_undefined - dc.w  table_oped
003608  ffff                          op_undefined - dc.w  table_oped
00360a  ffff                          op_undefined - dc.w  table_oped
00360c  ffff                          op_undefined - dc.w  table_oped
00360e  ffff                          op_undefined - dc.w  table_oped
003610  ffff                          op_undefined - dc.w  table_oped
003612  ffff                          op_undefined - dc.w  table_oped
003614  ffff                          op_undefined - dc.w  table_oped
003616  ffff                          op_undefined - dc.w  table_oped
003618  ffff                          op_undefined - dc.w  table_oped
00361a  ffff                          op_undefined - dc.w  table_oped
00361c  ffff                          op_undefined - dc.w  table_oped
00361e  ffff                          op_undefined - dc.w  table_oped
003620  ffff                          op_undefined - dc.w  table_oped
003622  ffff                          op_undefined - dc.w  table_oped
003624  ffff                          op_undefined - dc.w  table_oped
003626  ffff                          op_undefined - dc.w  table_oped
003628  ffff                          op_undefined - dc.w  table_oped
00362a  ffff                          op_undefined - dc.w  table_oped
00362c  ffff                          op_undefined - dc.w  table_oped
00362e  ffff                          op_undefined - dc.w  table_oped
003630  ffff                          op_undefined - dc.w  table_oped
003632  ffff                          op_undefined - dc.w  table_oped
003634  ffff                          op_undefined - dc.w  table_oped
003636  ffff                          op_undefined - dc.w  table_oped
003638  ffff                          op_undefined - dc.w  table_oped
00363a  ffff                          op_undefined - dc.w  table_oped
00363c  ffff                          op_undefined - dc.w  table_oped
00363e  ffff                          op_undefined - dc.w  table_oped
003640  ffff                          op_undefined - dc.w  table_oped
003642  ffff                          op_undefined - dc.w  table_oped
003644  ffff                          op_undefined - dc.w  table_oped
003646  ffff                          op_undefined - dc.w  table_oped
003648  ffff                          op_undefined - dc.w  table_oped
00364a  ffff                          op_undefined - dc.w  table_oped
00364c  ffff                          op_undefined - dc.w  table_oped
00364e  ffff                          op_undefined - dc.w  table_oped
003650  ffff                          op_undefined - dc.w  table_oped
003652  ffff                          op_undefined - dc.w  table_oped
003654  ffff                          op_undefined - dc.w  table_oped
003656  ffff                          op_undefined - dc.w  table_oped
003658  ffff                          op_undefined - dc.w  table_oped
00365a  ffff                          op_undefined - dc.w  table_oped
00365c  ffff                          op_undefined - dc.w  table_oped
00365e  ffff                          op_undefined - dc.w  table_oped
003660  ffff                          op_undefined - dc.w  table_oped
003662  ffff                          op_undefined - dc.w  table_oped
003664  ffff                          op_undefined - dc.w  table_oped
003666  ffff                          op_undefined - dc.w  table_oped
003668  ffff                          op_undefined - dc.w  table_oped
00366a  ffff                          op_undefined - dc.w  table_oped
00366c  ffff                          op_undefined - dc.w  table_oped
00366e  ffff                          op_undefined - dc.w  table_oped
003670  ffff                          op_undefined - dc.w  table_oped
003672  ffff                          op_undefined - dc.w  table_oped
003674  ffff                          op_undefined - dc.w  table_oped
003676  0200                          op_ed40 - dc.w  table_oped
003678  022a                          op_ed41 - dc.w  table_oped
00367a  0258                          op_ed42 - dc.w  table_oped
00367c  027a                          op_ed43 - dc.w  table_oped
00367e  029a                          op_ed44 - dc.w  table_oped
003680  ffff                          op_undefined - dc.w  table_oped
003682  ffff                          op_undefined - dc.w  table_oped
003684  02bc                          op_ed47 - dc.w  table_oped
003686  02cc                          op_ed48 - dc.w  table_oped
003688  02f6                          op_ed49 - dc.w  table_oped
00368a  0322                          op_ed4a - dc.w  table_oped
00368c  0342                          op_ed4b - dc.w  table_oped
00368e  ffff                          op_undefined - dc.w  table_oped
003690  ffff                          op_undefined - dc.w  table_oped
003692  ffff                          op_undefined - dc.w  table_oped
003694  0362                          op_ed4f - dc.w  table_oped
003696  036e                          op_ed50 - dc.w  table_oped
003698  0398                          op_ed51 - dc.w  table_oped
00369a  03c6                          op_ed52 - dc.w  table_oped
00369c  03e8                          op_ed53 - dc.w  table_oped
00369e  ffff                          op_undefined - dc.w  table_oped
0036a0  ffff                          op_undefined - dc.w  table_oped
0036a2  ffff                          op_undefined - dc.w  table_oped
0036a4  0408                          op_ed57 - dc.w  table_oped
0036a6  041e                          op_ed58 - dc.w  table_oped
0036a8  0448                          op_ed59 - dc.w  table_oped
0036aa  0476                          op_ed5a - dc.w  table_oped
0036ac  0496                          op_ed5b - dc.w  table_oped
0036ae  ffff                          op_undefined - dc.w  table_oped
0036b0  ffff                          op_undefined - dc.w  table_oped
0036b2  ffff                          op_undefined - dc.w  table_oped
0036b4  04b6                          op_ed5f - dc.w  table_oped
0036b6  04d4                          op_ed60 - dc.w  table_oped
0036b8  04fc                          op_ed61 - dc.w  table_oped
0036ba  0528                          op_ed62 - dc.w  table_oped
0036bc  ffff                          op_undefined - dc.w  table_oped
0036be  ffff                          op_undefined - dc.w  table_oped
0036c0  ffff                          op_undefined - dc.w  table_oped
0036c2  ffff                          op_undefined - dc.w  table_oped
0036c4  0542                          op_ed67 - dc.w  table_oped
0036c6  0562                          op_ed68 - dc.w  table_oped
0036c8  058c                          op_ed69 - dc.w  table_oped
0036ca  05ba                          op_ed6a - dc.w  table_oped
0036cc  ffff                          op_undefined - dc.w  table_oped
0036ce  ffff                          op_undefined - dc.w  table_oped
0036d0  ffff                          op_undefined - dc.w  table_oped
0036d2  ffff                          op_undefined - dc.w  table_oped
0036d4  05d6                          op_ed6f - dc.w  table_oped
0036d6  ffff                          op_undefined - dc.w  table_oped
0036d8  ffff                          op_undefined - dc.w  table_oped
0036da  05f6                          op_ed72 - dc.w  table_oped
0036dc  0618                          op_ed73 - dc.w  table_oped
0036de  ffff                          op_undefined - dc.w  table_oped
0036e0  ffff                          op_undefined - dc.w  table_oped
0036e2  ffff                          op_undefined - dc.w  table_oped
0036e4  ffff                          op_undefined - dc.w  table_oped
0036e6  063a                          op_ed78 - dc.w  table_oped
0036e8  0664                          op_ed79 - dc.w  table_oped
0036ea  0690                          op_ed7a - dc.w  table_oped
0036ec  06b0                          op_ed7b - dc.w  table_oped
0036ee  ffff                          op_undefined - dc.w  table_oped
0036f0  ffff                          op_undefined - dc.w  table_oped
0036f2  ffff                          op_undefined - dc.w  table_oped
0036f4  ffff                          op_undefined - dc.w  table_oped
0036f6  ffff                          op_undefined - dc.w  table_oped
0036f8  ffff                          op_undefined - dc.w  table_oped
0036fa  ffff                          op_undefined - dc.w  table_oped
0036fc  ffff                          op_undefined - dc.w  table_oped
0036fe  ffff                          op_undefined - dc.w  table_oped
003700  ffff                          op_undefined - dc.w  table_oped
003702  ffff                          op_undefined - dc.w  table_oped
003704  ffff                          op_undefined - dc.w  table_oped
003706  ffff                          op_undefined - dc.w  table_oped
003708  ffff                          op_undefined - dc.w  table_oped
00370a  ffff                          op_undefined - dc.w  table_oped
00370c  ffff                          op_undefined - dc.w  table_oped
00370e  ffff                          op_undefined - dc.w  table_oped
003710  ffff                          op_undefined - dc.w  table_oped
003712  ffff                          op_undefined - dc.w  table_oped
003714  ffff                          op_undefined - dc.w  table_oped
003716  ffff                          op_undefined - dc.w  table_oped
003718  ffff                          op_undefined - dc.w  table_oped
00371a  ffff                          op_undefined - dc.w  table_oped
00371c  ffff                          op_undefined - dc.w  table_oped
00371e  ffff                          op_undefined - dc.w  table_oped
003720  ffff                          op_undefined - dc.w  table_oped
003722  ffff                          op_undefined - dc.w  table_oped
003724  ffff                          op_undefined - dc.w  table_oped
003726  ffff                          op_undefined - dc.w  table_oped
003728  ffff                          op_undefined - dc.w  table_oped
00372a  ffff                          op_undefined - dc.w  table_oped
00372c  ffff                          op_undefined - dc.w  table_oped
00372e  ffff                          op_undefined - dc.w  table_oped
003730  ffff                          op_undefined - dc.w  table_oped
003732  ffff                          op_undefined - dc.w  table_oped
003734  ffff                          op_undefined - dc.w  table_oped
003736  06d4                          op_eda0 - dc.w  table_oped
003738  06fc                          op_eda1 - dc.w  table_oped
00373a  071c                          op_eda2 - dc.w  table_oped
00373c  074c                          op_eda3 - dc.w  table_oped
00373e  ffff                          op_undefined - dc.w  table_oped
003740  ffff                          op_undefined - dc.w  table_oped
003742  ffff                          op_undefined - dc.w  table_oped
003744  ffff                          op_undefined - dc.w  table_oped
003746  077c                          op_eda8 - dc.w  table_oped
003748  07a4                          op_eda9 - dc.w  table_oped
00374a  07c4                          op_edaa - dc.w  table_oped
00374c  07f4                          op_edab - dc.w  table_oped
00374e  ffff                          op_undefined - dc.w  table_oped
003750  ffff                          op_undefined - dc.w  table_oped
003752  ffff                          op_undefined - dc.w  table_oped
003754  ffff                          op_undefined - dc.w  table_oped
003756  0824                          op_edb0 - dc.w  table_oped
003758  085a                          op_edb1 - dc.w  table_oped
00375a  0890                          op_edb2 - dc.w  table_oped
00375c  08c2                          op_edb3 - dc.w  table_oped
00375e  ffff                          op_undefined - dc.w  table_oped
003760  ffff                          op_undefined - dc.w  table_oped
003762  ffff                          op_undefined - dc.w  table_oped
003764  ffff                          op_undefined - dc.w  table_oped
003766  08f4                          op_edb8 - dc.w  table_oped
003768  092a                          op_edb9 - dc.w  table_oped
00376a  0960                          op_edba - dc.w  table_oped
00376c  0992                          op_edbb - dc.w  table_oped
00376e  ffff                          op_undefined - dc.w  table_oped
003770  ffff                          op_undefined - dc.w  table_oped
003772  ffff                          op_undefined - dc.w  table_oped
003774  ffff                          op_undefined - dc.w  table_oped
003776  ffff                          op_undefined - dc.w  table_oped
003778  ffff                          op_undefined - dc.w  table_oped
00377a  ffff                          op_undefined - dc.w  table_oped
00377c  ffff                          op_undefined - dc.w  table_oped
00377e  ffff                          op_undefined - dc.w  table_oped
003780  ffff                          op_undefined - dc.w  table_oped
003782  ffff                          op_undefined - dc.w  table_oped
003784  ffff                          op_undefined - dc.w  table_oped
003786  ffff                          op_undefined - dc.w  table_oped
003788  ffff                          op_undefined - dc.w  table_oped
00378a  ffff                          op_undefined - dc.w  table_oped
00378c  ffff                          op_undefined - dc.w  table_oped
00378e  ffff                          op_undefined - dc.w  table_oped
003790  ffff                          op_undefined - dc.w  table_oped
003792  ffff                          op_undefined - dc.w  table_oped
003794  ffff                          op_undefined - dc.w  table_oped
003796  ffff                          op_undefined - dc.w  table_oped
003798  ffff                          op_undefined - dc.w  table_oped
00379a  ffff                          op_undefined - dc.w  table_oped
00379c  ffff                          op_undefined - dc.w  table_oped
00379e  ffff                          op_undefined - dc.w  table_oped
0037a0  ffff                          op_undefined - dc.w  table_oped
0037a2  ffff                          op_undefined - dc.w  table_oped
0037a4  ffff                          op_undefined - dc.w  table_oped
0037a6  ffff                          op_undefined - dc.w  table_oped
0037a8  ffff                          op_undefined - dc.w  table_oped
0037aa  ffff                          op_undefined - dc.w  table_oped
0037ac  ffff                          op_undefined - dc.w  table_oped
0037ae  ffff                          op_undefined - dc.w  table_oped
0037b0  ffff                          op_undefined - dc.w  table_oped
0037b2  ffff                          op_undefined - dc.w  table_oped
0037b4  ffff                          op_undefined - dc.w  table_oped
0037b6  ffff                          op_undefined - dc.w  table_oped
0037b8  ffff                          op_undefined - dc.w  table_oped
0037ba  ffff                          op_undefined - dc.w  table_oped
0037bc  ffff                          op_undefined - dc.w  table_oped
0037be  ffff                          op_undefined - dc.w  table_oped
0037c0  ffff                          op_undefined - dc.w  table_oped
0037c2  ffff                          op_undefined - dc.w  table_oped
0037c4  ffff                          op_undefined - dc.w  table_oped
0037c6  ffff                          op_undefined - dc.w  table_oped
0037c8  ffff                          op_undefined - dc.w  table_oped
0037ca  ffff                          op_undefined - dc.w  table_oped
0037cc  ffff                          op_undefined - dc.w  table_oped
0037ce  ffff                          op_undefined - dc.w  table_oped
0037d0  ffff                          op_undefined - dc.w  table_oped
0037d2  ffff                          op_undefined - dc.w  table_oped
0037d4  ffff                          op_undefined - dc.w  table_oped
0037d6  ffff                          op_undefined - dc.w  table_oped
0037d8  ffff                          op_undefined - dc.w  table_oped
0037da  ffff                          op_undefined - dc.w  table_oped
0037dc  ffff                          op_undefined - dc.w  table_oped
0037de  ffff                          op_undefined - dc.w  table_oped
0037e0  ffff                          op_undefined - dc.w  table_oped
0037e2  ffff                          op_undefined - dc.w  table_oped
0037e4  ffff                          op_undefined - dc.w  table_oped
0037e6  ffff                          op_undefined - dc.w  table_oped
0037e8  ffff                          op_undefined - dc.w  table_oped
0037ea  ffff                          op_undefined - dc.w  table_oped
0037ec  ffff                          op_undefined - dc.w  table_oped
0037ee  ffff                          op_undefined - dc.w  table_oped
0037f0  ffff                          op_undefined - dc.w  table_oped
0037f2  ffff                          op_undefined - dc.w  table_oped
0037f4  ffff                          op_undefined - dc.w  table_oped
        op_ed40:                      ; in b,(c)
0037f6  102d 0005                     MOVE.b    ($0005,a5),D0
0037fa  48e7 037e                     MOVEM.l   A6/A5/A4/A3/A2/A1/D7/D6,-(A7)
0037fe  206d 0030                     MOVEA.l   $0030(A5),A0
003802  4e90                          JSR       (A0)
003804  4cdf 7ec0                     MOVEM.l   (A7)+,D6/D7/A1/A2/A3/A4/A5/A6
003808  7200                          MOVEQ     #0,D1
00380a  1b40 0004                     MOVE.b    D0,$0004(A5)
00380e  5bc2                          SMI       D2
003810  57c3                          SEQ       D3
003812  4240                          CLR.w     D0
003814  1019                          MOVE.b    (A1)+,D0
003816  d040                          ADD.w     D0,D0
003818  3233 0000                     MOVE.w    $00(A3,D0),D1
00381c  4ef3 1000                     JMP       $00(A3,D1)
        op_ed41:                      ; out (c),b
003820  102d 0005                     MOVE.b    ($0005,a5),D0
003824  122d 0004                     MOVE.b    ($0004,a5),D1
003828  48a7 3f00                     MOVEM.w   D7/D6/D5/D4/D3/D2,-(A7)
00382c  48e7 007e                     MOVEM.l   A6/A5/A4/A3/A2/A1,-(A7)
003830  206d 0034                     MOVEA.l   $0034(A5),A0
003834  4e90                          JSR       (A0)
003836  4cdf 7e00                     MOVEM.l   (A7)+,A1/A2/A3/A4/A5/A6
00383a  4c9f 00fc                     MOVEM.w   (A7)+,D2/D3/D4/D5/D6/D7
00383e  7200                          MOVEQ     #0,D1
003840  4240                          CLR.w     D0
003842  1019                          MOVE.b    (A1)+,D0
003844  d040                          ADD.w     D0,D0
003846  3233 0000                     MOVE.w    $00(A3,D0),D1
00384a  4ef3 1000                     JMP       $00(A3,D1)
        op_ed42:                      ; sbc hl,bc
00384e  342d 0004                     MOVE.w    ($0004,a5),D2
003852  44c6                          MOVE      D6,ccr
003854  3215                          MOVE.w    (A5),D1
003856  9342                          SUBX.w    D2,D1
003858  5bc2                          SMI       D2
00385a  59c5                          SVS       D5
00385c  55c6                          SCS       D6
00385e  4a41                          TST.w     D1
003860  57c3                          SEQ       D3
003862  3a81                          MOVE.w    D1,(A5)
003864  1019                          MOVE.b    (A1)+,D0
003866  d040                          ADD.w     D0,D0
003868  3233 0000                     MOVE.w    $00(A3,D0),D1
00386c  4ef3 1000                     JMP       $00(A3,D1)
        op_ed43:                      ; ld (nn),bc
003870  1019                          MOVE.b    (A1)+,D0
003872  1219                          MOVE.b    (A1)+,D1
003874  e059                          ROR.w     #8,D1
003876  1200                          MOVE.b    D0,D1
003878  1dad 0005 1800                MOVE.b    ($0005,a5),$00(A6,D1.l)
00387e  1dad 0004 1801                MOVE.b    ($0004,a5),$01(A6,D1.l)
003884  1019                          MOVE.b    (A1)+,D0
003886  d040                          ADD.w     D0,D0
003888  3233 0000                     MOVE.w    $00(A3,D0),D1
00388c  4ef3 1000                     JMP       $00(A3,D1)
        op_ed44:                      ; neg
003890  4407                          NEG.b     D7
003892  5bc2                          SMI       D2
003894  57c3                          SEQ       D3
003896  59c5                          SVS       D5
003898  55c6                          SCS       D6
00389a  1207                          MOVE.b    D7,D1
00389c  c23c 000f                     AND.b     #$000f,D1
0038a0  56c4                          SNE       D4
0038a2  8c7c 8000                     OR.w      #$8000,D6
0038a6  1019                          MOVE.b    (A1)+,D0
0038a8  d040                          ADD.w     D0,D0
0038aa  3233 0000                     MOVE.w    $00(A3,D0),D1
0038ae  4ef3 1000                     JMP       $00(A3,D1)
        op_ed47:                      ; ld i,a
0038b2  1b47 0017                     MOVE.b    D7,$0017(A5)
0038b6  1019                          MOVE.b    (A1)+,D0
0038b8  d040                          ADD.w     D0,D0
0038ba  3233 0000                     MOVE.w    $00(A3,D0),D1
0038be  4ef3 1000                     JMP       $00(A3,D1)
        op_ed48:                      ; in c,(c)
0038c2  102d 0005                     MOVE.b    ($0005,a5),D0
0038c6  48e7 037e                     MOVEM.l   A6/A5/A4/A3/A2/A1/D7/D6,-(A7)
0038ca  206d 0030                     MOVEA.l   $0030(A5),A0
0038ce  4e90                          JSR       (A0)
0038d0  4cdf 7ec0                     MOVEM.l   (A7)+,D6/D7/A1/A2/A3/A4/A5/A6
0038d4  7200                          MOVEQ     #0,D1
0038d6  1b40 0005                     MOVE.b    D0,$0005(A5)
0038da  5bc2                          SMI       D2
0038dc  57c3                          SEQ       D3
0038de  4240                          CLR.w     D0
0038e0  1019                          MOVE.b    (A1)+,D0
0038e2  d040                          ADD.w     D0,D0
0038e4  3233 0000                     MOVE.w    $00(A3,D0),D1
0038e8  4ef3 1000                     JMP       $00(A3,D1)
        op_ed49:                      ; out (c),c
0038ec  102d 0005                     MOVE.b    ($0005,a5),D0
0038f0  1200                          MOVE.b    D0,D1
0038f2  48a7 3f00                     MOVEM.w   D7/D6/D5/D4/D3/D2,-(A7)
0038f6  48e7 007e                     MOVEM.l   A6/A5/A4/A3/A2/A1,-(A7)
0038fa  206d 0034                     MOVEA.l   $0034(A5),A0
0038fe  4e90                          JSR       (A0)
003900  4cdf 7e00                     MOVEM.l   (A7)+,A1/A2/A3/A4/A5/A6
003904  4c9f 00fc                     MOVEM.w   (A7)+,D2/D3/D4/D5/D6/D7
003908  7200                          MOVEQ     #0,D1
00390a  4240                          CLR.w     D0
00390c  1019                          MOVE.b    (A1)+,D0
00390e  d040                          ADD.w     D0,D0
003910  3233 0000                     MOVE.w    $00(A3,D0),D1
003914  4ef3 1000                     JMP       $00(A3,D1)
        op_ed4a:                      ; adc hl,bc
003918  342d 0004                     MOVE.w    ($0004,a5),D2
00391c  44c6                          MOVE      D6,ccr
00391e  3215                          MOVE.w    (A5),D1
003920  d342                          ADDX.w    D2,D1
003922  5bc2                          SMI       D2
003924  57c3                          SEQ       D3
003926  59c5                          SVS       D5
003928  55c6                          SCS       D6
00392a  3a81                          MOVE.w    D1,(A5)
00392c  1019                          MOVE.b    (A1)+,D0
00392e  d040                          ADD.w     D0,D0
003930  3233 0000                     MOVE.w    $00(A3,D0),D1
003934  4ef3 1000                     JMP       $00(A3,D1)
        op_ed4b:                      ; ld bc,(nn)
003938  1019                          MOVE.b    (A1)+,D0
00393a  1219                          MOVE.b    (A1)+,D1
00393c  e059                          ROR.w     #8,D1
00393e  1200                          MOVE.b    D0,D1
003940  1b76 1800 0005                MOVE.b    $05(A6,D0),$0005(A5)
003946  1b76 1801 0004                MOVE.b    $04(A6,D0),$0004(A5)
00394c  1019                          MOVE.b    (A1)+,D0
00394e  d040                          ADD.w     D0,D0
003950  3233 0000                     MOVE.w    $00(A3,D0),D1
003954  4ef3 1000                     JMP       $00(A3,D1)
        op_ed4f:                      ; ld r,a
003958  1019                          MOVE.b    (A1)+,D0
00395a  d040                          ADD.w     D0,D0
00395c  3233 0000                     MOVE.w    $00(A3,D0),D1
003960  4ef3 1000                     JMP       $00(A3,D1)
        op_ed50:                      ; in d,(c)
003964  102d 0005                     MOVE.b    ($0005,a5),D0
003968  48e7 037e                     MOVEM.l   A6/A5/A4/A3/A2/A1/D7/D6,-(A7)
00396c  206d 0030                     MOVEA.l   $0030(A5),A0
003970  4e90                          JSR       (A0)
003972  4cdf 7ec0                     MOVEM.l   (A7)+,D6/D7/A1/A2/A3/A4/A5/A6
003976  7200                          MOVEQ     #0,D1
003978  1b40 0002                     MOVE.b    D0,$0002(A5)
00397c  5bc2                          SMI       D2
00397e  57c3                          SEQ       D3
003980  4240                          CLR.w     D0
003982  1019                          MOVE.b    (A1)+,D0
003984  d040                          ADD.w     D0,D0
003986  3233 0000                     MOVE.w    $00(A3,D0),D1
00398a  4ef3 1000                     JMP       $00(A3,D1)
        op_ed51:                      ; out (c),d
00398e  102d 0005                     MOVE.b    ($0005,a5),D0
003992  122d 0002                     MOVE.b    ($0002,a5),D1
003996  48a7 3f00                     MOVEM.w   D7/D6/D5/D4/D3/D2,-(A7)
00399a  48e7 007e                     MOVEM.l   A6/A5/A4/A3/A2/A1,-(A7)
00399e  206d 0034                     MOVEA.l   $0034(A5),A0
0039a2  4e90                          JSR       (A0)
0039a4  4cdf 7e00                     MOVEM.l   (A7)+,A1/A2/A3/A4/A5/A6
0039a8  4c9f 00fc                     MOVEM.w   (A7)+,D2/D3/D4/D5/D6/D7
0039ac  7200                          MOVEQ     #0,D1
0039ae  4240                          CLR.w     D0
0039b0  1019                          MOVE.b    (A1)+,D0
0039b2  d040                          ADD.w     D0,D0
0039b4  3233 0000                     MOVE.w    $00(A3,D0),D1
0039b8  4ef3 1000                     JMP       $00(A3,D1)
        op_ed52:                      ; sbc hl,de
0039bc  342d 0002                     MOVE.w    ($0002,a5),D2
0039c0  44c6                          MOVE      D6,ccr
0039c2  3215                          MOVE.w    (A5),D1
0039c4  9342                          SUBX.w    D2,D1
0039c6  5bc2                          SMI       D2
0039c8  59c5                          SVS       D5
0039ca  55c6                          SCS       D6
0039cc  4a41                          TST.w     D1
0039ce  57c3                          SEQ       D3
0039d0  3a81                          MOVE.w    D1,(A5)
0039d2  1019                          MOVE.b    (A1)+,D0
0039d4  d040                          ADD.w     D0,D0
0039d6  3233 0000                     MOVE.w    $00(A3,D0),D1
0039da  4ef3 1000                     JMP       $00(A3,D1)
        op_ed53:                      ; ld (nn),de
0039de  1019                          MOVE.b    (A1)+,D0
0039e0  1219                          MOVE.b    (A1)+,D1
0039e2  e059                          ROR.w     #8,D1
0039e4  1200                          MOVE.b    D0,D1
0039e6  1dad 0003 1800                MOVE.b    ($0003,a5),$00(A6,D1.l)
0039ec  1dad 0002 1801                MOVE.b    ($0002,a5),$01(A6,D1.l)
0039f2  1019                          MOVE.b    (A1)+,D0
0039f4  d040                          ADD.w     D0,D0
0039f6  3233 0000                     MOVE.w    $00(A3,D0),D1
0039fa  4ef3 1000                     JMP       $00(A3,D1)
        op_ed57:                      ; ld a,i
0039fe  1e2d 0017                     MOVE.b    ($0017,a5),D7
003a02  5bc2                          SMI       D2
003a04  57c3                          SEQ       D3
003a06  51c5                          SF        D5
003a08  1019                          MOVE.b    (A1)+,D0
003a0a  d040                          ADD.w     D0,D0
003a0c  3233 0000                     MOVE.w    $00(A3,D0),D1
003a10  4ef3 1000                     JMP       $00(A3,D1)
        op_ed58:                      ; in e,(c)
003a14  102d 0005                     MOVE.b    ($0005,a5),D0
003a18  48e7 037e                     MOVEM.l   A6/A5/A4/A3/A2/A1/D7/D6,-(A7)
003a1c  206d 0030                     MOVEA.l   $0030(A5),A0
003a20  4e90                          JSR       (A0)
003a22  4cdf 7ec0                     MOVEM.l   (A7)+,D6/D7/A1/A2/A3/A4/A5/A6
003a26  7200                          MOVEQ     #0,D1
003a28  1b40 0003                     MOVE.b    D0,$0003(A5)
003a2c  5bc2                          SMI       D2
003a2e  57c3                          SEQ       D3
003a30  4240                          CLR.w     D0
003a32  1019                          MOVE.b    (A1)+,D0
003a34  d040                          ADD.w     D0,D0
003a36  3233 0000                     MOVE.w    $00(A3,D0),D1
003a3a  4ef3 1000                     JMP       $00(A3,D1)
        op_ed59:                      ; out (c),e
003a3e  102d 0005                     MOVE.b    ($0005,a5),D0
003a42  122d 0003                     MOVE.b    ($0003,a5),D1
003a46  48a7 3f00                     MOVEM.w   D7/D6/D5/D4/D3/D2,-(A7)
003a4a  48e7 007e                     MOVEM.l   A6/A5/A4/A3/A2/A1,-(A7)
003a4e  206d 0034                     MOVEA.l   $0034(A5),A0
003a52  4e90                          JSR       (A0)
003a54  4cdf 7e00                     MOVEM.l   (A7)+,A1/A2/A3/A4/A5/A6
003a58  4c9f 00fc                     MOVEM.w   (A7)+,D2/D3/D4/D5/D6/D7
003a5c  7200                          MOVEQ     #0,D1
003a5e  4240                          CLR.w     D0
003a60  1019                          MOVE.b    (A1)+,D0
003a62  d040                          ADD.w     D0,D0
003a64  3233 0000                     MOVE.w    $00(A3,D0),D1
003a68  4ef3 1000                     JMP       $00(A3,D1)
        op_ed5a:                      ; adc hl,de
003a6c  342d 0002                     MOVE.w    ($0002,a5),D2
003a70  44c6                          MOVE      D6,ccr
003a72  3215                          MOVE.w    (A5),D1
003a74  d342                          ADDX.w    D2,D1
003a76  5bc2                          SMI       D2
003a78  57c3                          SEQ       D3
003a7a  59c5                          SVS       D5
003a7c  55c6                          SCS       D6
003a7e  3a81                          MOVE.w    D1,(A5)
003a80  1019                          MOVE.b    (A1)+,D0
003a82  d040                          ADD.w     D0,D0
003a84  3233 0000                     MOVE.w    $00(A3,D0),D1
003a88  4ef3 1000                     JMP       $00(A3,D1)
        op_ed5b:                      ; ld de,(nn)
003a8c  1019                          MOVE.b    (A1)+,D0
003a8e  1219                          MOVE.b    (A1)+,D1
003a90  e059                          ROR.w     #8,D1
003a92  1200                          MOVE.b    D0,D1
003a94  1b76 1800 0003                MOVE.b    $03(A6,D0),$0003(A5)
003a9a  1b76 1801 0002                MOVE.b    $02(A6,D0),$0002(A5)
003aa0  1019                          MOVE.b    (A1)+,D0
003aa2  d040                          ADD.w     D0,D0
003aa4  3233 0000                     MOVE.w    $00(A3,D0),D1
003aa8  4ef3 1000                     JMP       $00(A3,D1)
        op_ed5f:                      ; ld a,r
003aac  d248                          ADD.w     A0,D1
003aae  d249                          ADD.w     A1,D1
003ab0  d240                          ADD.w     D0,D1
003ab2  c23c 007f                     AND.b     #$007f,D1
003ab6  1e01                          MOVE.b    D1,D7
003ab8  5bc2                          SMI       D2
003aba  57c3                          SEQ       D3
003abc  51c5                          SF        D5
003abe  1019                          MOVE.b    (A1)+,D0
003ac0  d040                          ADD.w     D0,D0
003ac2  3233 0000                     MOVE.w    $00(A3,D0),D1
003ac6  4ef3 1000                     JMP       $00(A3,D1)
        op_ed60:                      ; in h,(c)
003aca  102d 0005                     MOVE.b    ($0005,a5),D0
003ace  48e7 037e                     MOVEM.l   A6/A5/A4/A3/A2/A1/D7/D6,-(A7)
003ad2  206d 0030                     MOVEA.l   $0030(A5),A0
003ad6  4e90                          JSR       (A0)
003ad8  4cdf 7ec0                     MOVEM.l   (A7)+,D6/D7/A1/A2/A3/A4/A5/A6
003adc  7200                          MOVEQ     #0,D1
003ade  1a80                          MOVE.b    D0,(A5)
003ae0  5bc2                          SMI       D2
003ae2  57c3                          SEQ       D3
003ae4  4240                          CLR.w     D0
003ae6  1019                          MOVE.b    (A1)+,D0
003ae8  d040                          ADD.w     D0,D0
003aea  3233 0000                     MOVE.w    $00(A3,D0),D1
003aee  4ef3 1000                     JMP       $00(A3,D1)
        op_ed61:                      ; out (c),h
003af2  102d 0005                     MOVE.b    ($0005,a5),D0
003af6  1215                          MOVE.b    (A5),D1
003af8  48a7 3f00                     MOVEM.w   D7/D6/D5/D4/D3/D2,-(A7)
003afc  48e7 007e                     MOVEM.l   A6/A5/A4/A3/A2/A1,-(A7)
003b00  206d 0034                     MOVEA.l   $0034(A5),A0
003b04  4e90                          JSR       (A0)
003b06  4cdf 7e00                     MOVEM.l   (A7)+,A1/A2/A3/A4/A5/A6
003b0a  4c9f 00fc                     MOVEM.w   (A7)+,D2/D3/D4/D5/D6/D7
003b0e  7200                          MOVEQ     #0,D1
003b10  4240                          CLR.w     D0
003b12  1019                          MOVE.b    (A1)+,D0
003b14  d040                          ADD.w     D0,D0
003b16  3233 0000                     MOVE.w    $00(A3,D0),D1
003b1a  4ef3 1000                     JMP       $00(A3,D1)
        op_ed62:                      ; sbc hl,hl
003b1e  1206                          MOVE.b    D6,D1
003b20  4881                          EXT.w     D1
003b22  56c2                          SNE       D2
003b24  57c3                          SEQ       D3
003b26  56c5                          SNE       D5
003b28  56c6                          SNE       D6
003b2a  3a81                          MOVE.w    D1,(A5)
003b2c  1019                          MOVE.b    (A1)+,D0
003b2e  d040                          ADD.w     D0,D0
003b30  3233 0000                     MOVE.w    $00(A3,D0),D1
003b34  4ef3 1000                     JMP       $00(A3,D1)
        op_ed67:                      ; rrd
003b38  3215                          MOVE.w    (A5),D1
003b3a  e15f                          ROL.w     #8,D7
003b3c  1e36 1800                     MOVE.b    $00(A6,D1.l),D7
003b40  e85f                          ROR.w     #4,D7
003b42  1d87 1800                     MOVE.b    D7,$00(A6,D1.l)
003b46  4207                          CLR.b     D7
003b48  e05f                          ROR.w     #8,D7
003b4a  e81f                          ROR.b     #4,D7
003b4c  1019                          MOVE.b    (A1)+,D0
003b4e  d040                          ADD.w     D0,D0
003b50  3233 0000                     MOVE.w    $00(A3,D0),D1
003b54  4ef3 1000                     JMP       $00(A3,D1)
        op_ed68:                      ; in l,(c)
003b58  102d 0005                     MOVE.b    ($0005,a5),D0
003b5c  48e7 037e                     MOVEM.l   A6/A5/A4/A3/A2/A1/D7/D6,-(A7)
003b60  206d 0030                     MOVEA.l   $0030(A5),A0
003b64  4e90                          JSR       (A0)
003b66  4cdf 7ec0                     MOVEM.l   (A7)+,D6/D7/A1/A2/A3/A4/A5/A6
003b6a  7200                          MOVEQ     #0,D1
003b6c  1b40 0001                     MOVE.b    D0,$0001(A5)
003b70  5bc2                          SMI       D2
003b72  57c3                          SEQ       D3
003b74  4240                          CLR.w     D0
003b76  1019                          MOVE.b    (A1)+,D0
003b78  d040                          ADD.w     D0,D0
003b7a  3233 0000                     MOVE.w    $00(A3,D0),D1
003b7e  4ef3 1000                     JMP       $00(A3,D1)
        op_ed69:                      ; out (c),l
003b82  102d 0005                     MOVE.b    ($0005,a5),D0
003b86  122d 0001                     MOVE.b    ($0001,a5),D1
003b8a  48a7 3f00                     MOVEM.w   D7/D6/D5/D4/D3/D2,-(A7)
003b8e  48e7 007e                     MOVEM.l   A6/A5/A4/A3/A2/A1,-(A7)
003b92  206d 0034                     MOVEA.l   $0034(A5),A0
003b96  4e90                          JSR       (A0)
003b98  4cdf 7e00                     MOVEM.l   (A7)+,A1/A2/A3/A4/A5/A6
003b9c  4c9f 00fc                     MOVEM.w   (A7)+,D2/D3/D4/D5/D6/D7
003ba0  7200                          MOVEQ     #0,D1
003ba2  4240                          CLR.w     D0
003ba4  1019                          MOVE.b    (A1)+,D0
003ba6  d040                          ADD.w     D0,D0
003ba8  3233 0000                     MOVE.w    $00(A3,D0),D1
003bac  4ef3 1000                     JMP       $00(A3,D1)
        op_ed6a:                      ; adc hl,hl
003bb0  3215                          MOVE.w    (A5),D1
003bb2  44c6                          MOVE      D6,ccr
003bb4  d341                          ADDX.w    D1,D1
003bb6  5bc2                          SMI       D2
003bb8  57c3                          SEQ       D3
003bba  59c5                          SVS       D5
003bbc  55c6                          SCS       D6
003bbe  3a81                          MOVE.w    D1,(A5)
003bc0  1019                          MOVE.b    (A1)+,D0
003bc2  d040                          ADD.w     D0,D0
003bc4  3233 0000                     MOVE.w    $00(A3,D0),D1
003bc8  4ef3 1000                     JMP       $00(A3,D1)
        op_ed6f:                      ; rld
003bcc  3215                          MOVE.w    (A5),D1
003bce  e81f                          ROR.b     #4,D7
003bd0  e05f                          ROR.w     #8,D7
003bd2  1e36 1800                     MOVE.b    $00(A6,D1.l),D7
003bd6  e95f                          ROL.w     #4,D7
003bd8  1d87 1800                     MOVE.b    D7,$00(A6,D1.l)
003bdc  4207                          CLR.b     D7
003bde  e05f                          ROR.w     #8,D7
003be0  1019                          MOVE.b    (A1)+,D0
003be2  d040                          ADD.w     D0,D0
003be4  3233 0000                     MOVE.w    $00(A3,D0),D1
003be8  4ef3 1000                     JMP       $00(A3,D1)
        op_ed72:                      ; sbc hl,sp
003bec  240a                          MOVE.l    A2,D2
003bee  948e                          SUB.l     A6,D2
003bf0  44c6                          MOVE      D6,ccr
003bf2  3215                          MOVE.w    (A5),D1
003bf4  9342                          SUBX.w    D2,D1
003bf6  5bc2                          SMI       D2
003bf8  59c5                          SVS       D5
003bfa  55c6                          SCS       D6
003bfc  4a41                          TST.w     D1
003bfe  57c3                          SEQ       D3
003c00  3a81                          MOVE.w    D1,(A5)
003c02  1019                          MOVE.b    (A1)+,D0
003c04  d040                          ADD.w     D0,D0
003c06  3233 0000                     MOVE.w    $00(A3,D0),D1
003c0a  4ef3 1000                     JMP       $00(A3,D1)
        op_ed73:                      ; ld (nn),sp
003c0e  1019                          MOVE.b    (A1)+,D0
003c10  1219                          MOVE.b    (A1)+,D1
003c12  e059                          ROR.w     #8,D1
003c14  1200                          MOVE.b    D0,D1
003c16  41f6 1800                     LEA       $00(A6,D1.l),A0
003c1a  220a                          MOVE.l    A2,D1
003c1c  928e                          SUB.l     A6,D1
003c1e  10c1                          MOVE.b    D1,(A0)+
003c20  e059                          ROR.w     #8,D1
003c22  1081                          MOVE.b    D1,(A0)
003c24  1019                          MOVE.b    (A1)+,D0
003c26  d040                          ADD.w     D0,D0
003c28  3233 0000                     MOVE.w    $00(A3,D0),D1
003c2c  4ef3 1000                     JMP       $00(A3,D1)
        op_ed78:                      ; in a,(c)
003c30  102d 0005                     MOVE.b    ($0005,a5),D0
003c34  48e7 027e                     MOVEM.l   A6/A5/A4/A3/A2/A1/D6,-(A7)
003c38  206d 0030                     MOVEA.l   $0030(A5),A0
003c3c  4e90                          JSR       (A0)
003c3e  4cdf 7e40                     MOVEM.l   (A7)+,D6/A1/A2/A3/A4/A5/A6
003c42  7200                          MOVEQ     #0,D1
003c44  4247                          CLR.w     D7
003c46  1e00                          MOVE.b    D0,D7
003c48  5bc2                          SMI       D2
003c4a  57c3                          SEQ       D3
003c4c  4240                          CLR.w     D0
003c4e  1019                          MOVE.b    (A1)+,D0
003c50  d040                          ADD.w     D0,D0
003c52  3233 0000                     MOVE.w    $00(A3,D0),D1
003c56  4ef3 1000                     JMP       $00(A3,D1)
        op_ed79:                      ; out (c),a
003c5a  102d 0005                     MOVE.b    ($0005,a5),D0
003c5e  1207                          MOVE.b    D7,D1
003c60  48a7 3f00                     MOVEM.w   D7/D6/D5/D4/D3/D2,-(A7)
003c64  48e7 007e                     MOVEM.l   A6/A5/A4/A3/A2/A1,-(A7)
003c68  206d 0034                     MOVEA.l   $0034(A5),A0
003c6c  4e90                          JSR       (A0)
003c6e  4cdf 7e00                     MOVEM.l   (A7)+,A1/A2/A3/A4/A5/A6
003c72  4c9f 00fc                     MOVEM.w   (A7)+,D2/D3/D4/D5/D6/D7
003c76  7200                          MOVEQ     #0,D1
003c78  4240                          CLR.w     D0
003c7a  1019                          MOVE.b    (A1)+,D0
003c7c  d040                          ADD.w     D0,D0
003c7e  3233 0000                     MOVE.w    $00(A3,D0),D1
003c82  4ef3 1000                     JMP       $00(A3,D1)
        op_ed7a:                      ; adc hl,sp
003c86  240a                          MOVE.l    A2,D2
003c88  948e                          SUB.l     A6,D2
003c8a  44c6                          MOVE      D6,ccr
003c8c  3215                          MOVE.w    (A5),D1
003c8e  d342                          ADDX.w    D2,D1
003c90  5bc2                          SMI       D2
003c92  57c3                          SEQ       D3
003c94  59c5                          SVS       D5
003c96  55c6                          SCS       D6
003c98  3a81                          MOVE.w    D1,(A5)
003c9a  1019                          MOVE.b    (A1)+,D0
003c9c  d040                          ADD.w     D0,D0
003c9e  3233 0000                     MOVE.w    $00(A3,D0),D1
003ca2  4ef3 1000                     JMP       $00(A3,D1)
        op_ed7b:                      ; ld sp,(nn)
003ca6  1019                          MOVE.b    (A1)+,D0
003ca8  1219                          MOVE.b    (A1)+,D1
003caa  e059                          ROR.w     #8,D1
003cac  1200                          MOVE.b    D0,D1
003cae  1036 1800                     MOVE.b    $00(A6,D1.l),D0
003cb2  1236 1801                     MOVE.b    $01(A6,D1.l),D1
003cb6  e059                          ROR.w     #8,D1
003cb8  1200                          MOVE.b    D0,D1
003cba  45f6 1800                     LEA       $00(A6,D1.l),A2
003cbe  1019                          MOVE.b    (A1)+,D0
003cc0  d040                          ADD.w     D0,D0
003cc2  3233 0000                     MOVE.w    $00(A3,D0),D1
003cc6  4ef3 1000                     JMP       $00(A3,D1)
        op_eda0:                      ; ldi
003cca  7000                          MOVEQ     #0,D0
003ccc  3015                          MOVE.w    (A5),D0
003cce  322d 0002                     MOVE.w    ($0002,a5),D1
003cd2  1db6 0800 1800                MOVE.b    $00(A6,D1.l),$00(A6,D1.l)
003cd8  5255                          ADDQ.w    #1,(A5)
003cda  526d 0002                     ADDQ.w    #1,$0002(A5)
003cde  536d 0004                     SUBQ.w    #1,$0004(A5)
003ce2  56c5                          SNE       D5
003ce4  4240                          CLR.w     D0
003ce6  1019                          MOVE.b    (A1)+,D0
003ce8  d040                          ADD.w     D0,D0
003cea  3233 0000                     MOVE.w    $00(A3,D0),D1
003cee  4ef3 1000                     JMP       $00(A3,D1)
        op_eda1:                      ; cpi
003cf2  3215                          MOVE.w    (A5),D1
003cf4  be36 1800                     CMP.b     $00(A6,D1.l),D7
003cf8  5bc2                          SMI       D2
003cfa  57c3                          SEQ       D3
003cfc  5255                          ADDQ.w    #1,(A5)
003cfe  536d 0004                     SUBQ.w    #1,$0004(A5)
003d02  56c5                          SNE       D5
003d04  4240                          CLR.w     D0
003d06  1019                          MOVE.b    (A1)+,D0
003d08  d040                          ADD.w     D0,D0
003d0a  3233 0000                     MOVE.w    $00(A3,D0),D1
003d0e  4ef3 1000                     JMP       $00(A3,D1)
        op_eda2:                      ; ini
003d12  102d 0005                     MOVE.b    ($0005,a5),D0
003d16  48e7 017e                     MOVEM.l   A6/A5/A4/A3/A2/A1/D7,-(A7)
003d1a  206d 0030                     MOVEA.l   $0030(A5),A0
003d1e  4e90                          JSR       (A0)
003d20  4cdf 7e80                     MOVEM.l   (A7)+,D7/A1/A2/A3/A4/A5/A6
003d24  7200                          MOVEQ     #0,D1
003d26  3215                          MOVE.w    (A5),D1
003d28  1d80 1800                     MOVE.b    D0,$00(A6,D1.l)
003d2c  5255                          ADDQ.w    #1,(A5)
003d2e  532d 0004                     SUBQ.b    #1,$0004(A5)
003d32  57c3                          SEQ       D3
003d34  4240                          CLR.w     D0
003d36  1019                          MOVE.b    (A1)+,D0
003d38  d040                          ADD.w     D0,D0
003d3a  3233 0000                     MOVE.w    $00(A3,D0),D1
003d3e  4ef3 1000                     JMP       $00(A3,D1)
        op_eda3:                      ; outi
003d42  102d 0005                     MOVE.b    ($0005,a5),D0
003d46  3215                          MOVE.w    (A5),D1
003d48  1236 1800                     MOVE.b    $00(A6,D1.l),D1
003d4c  48e7 017e                     MOVEM.l   A6/A5/A4/A3/A2/A1/D7,-(A7)
003d50  206d 0034                     MOVEA.l   $0034(A5),A0
003d54  4e90                          JSR       (A0)
003d56  4cdf 7e80                     MOVEM.l   (A7)+,D7/A1/A2/A3/A4/A5/A6
003d5a  7200                          MOVEQ     #0,D1
003d5c  5255                          ADDQ.w    #1,(A5)
003d5e  532d 0004                     SUBQ.b    #1,$0004(A5)
003d62  57c3                          SEQ       D3
003d64  4240                          CLR.w     D0
003d66  1019                          MOVE.b    (A1)+,D0
003d68  d040                          ADD.w     D0,D0
003d6a  3233 0000                     MOVE.w    $00(A3,D0),D1
003d6e  4ef3 1000                     JMP       $00(A3,D1)
        op_eda8:                      ; ldd
003d72  7000                          MOVEQ     #0,D0
003d74  3015                          MOVE.w    (A5),D0
003d76  322d 0002                     MOVE.w    ($0002,a5),D1
003d7a  1db6 0800 1800                MOVE.b    $00(A6,D1.l),$00(A6,D1.l)
003d80  5355                          SUBQ.w    #1,(A5)
003d82  536d 0002                     SUBQ.w    #1,$0002(A5)
003d86  536d 0004                     SUBQ.w    #1,$0004(A5)
003d8a  56c5                          SNE       D5
003d8c  4240                          CLR.w     D0
003d8e  1019                          MOVE.b    (A1)+,D0
003d90  d040                          ADD.w     D0,D0
003d92  3233 0000                     MOVE.w    $00(A3,D0),D1
003d96  4ef3 1000                     JMP       $00(A3,D1)
        op_eda9:                      ; cpd
003d9a  3215                          MOVE.w    (A5),D1
003d9c  be36 1800                     CMP.b     $00(A6,D1.l),D7
003da0  5bc2                          SMI       D2
003da2  57c3                          SEQ       D3
003da4  5355                          SUBQ.w    #1,(A5)
003da6  536d 0004                     SUBQ.w    #1,$0004(A5)
003daa  56c5                          SNE       D5
003dac  4240                          CLR.w     D0
003dae  1019                          MOVE.b    (A1)+,D0
003db0  d040                          ADD.w     D0,D0
003db2  3233 0000                     MOVE.w    $00(A3,D0),D1
003db6  4ef3 1000                     JMP       $00(A3,D1)
        op_edaa:                      ; ind
003dba  102d 0005                     MOVE.b    ($0005,a5),D0
003dbe  48e7 017e                     MOVEM.l   A6/A5/A4/A3/A2/A1/D7,-(A7)
003dc2  206d 0030                     MOVEA.l   $0030(A5),A0
003dc6  4e90                          JSR       (A0)
003dc8  4cdf 7e80                     MOVEM.l   (A7)+,D7/A1/A2/A3/A4/A5/A6
003dcc  7200                          MOVEQ     #0,D1
003dce  3215                          MOVE.w    (A5),D1
003dd0  1d80 1800                     MOVE.b    D0,$00(A6,D1.l)
003dd4  5355                          SUBQ.w    #1,(A5)
003dd6  532d 0004                     SUBQ.b    #1,$0004(A5)
003dda  57c3                          SEQ       D3
003ddc  4240                          CLR.w     D0
003dde  1019                          MOVE.b    (A1)+,D0
003de0  d040                          ADD.w     D0,D0
003de2  3233 0000                     MOVE.w    $00(A3,D0),D1
003de6  4ef3 1000                     JMP       $00(A3,D1)
        op_edab:                      ; outd
003dea  102d 0005                     MOVE.b    ($0005,a5),D0
003dee  3215                          MOVE.w    (A5),D1
003df0  1236 1800                     MOVE.b    $00(A6,D1.l),D1
003df4  48e7 017e                     MOVEM.l   A6/A5/A4/A3/A2/A1/D7,-(A7)
003df8  206d 0034                     MOVEA.l   $0034(A5),A0
003dfc  4e90                          JSR       (A0)
003dfe  4cdf 7e80                     MOVEM.l   (A7)+,D7/A1/A2/A3/A4/A5/A6
003e02  7200                          MOVEQ     #0,D1
003e04  5355                          SUBQ.w    #1,(A5)
003e06  532d 0004                     SUBQ.b    #1,$0004(A5)
003e0a  57c3                          SEQ       D3
003e0c  4240                          CLR.w     D0
003e0e  1019                          MOVE.b    (A1)+,D0
003e10  d040                          ADD.w     D0,D0
003e12  3233 0000                     MOVE.w    $00(A3,D0),D1
003e16  4ef3 1000                     JMP       $00(A3,D1)
        op_edb0:                      ; ldir
003e1a  7000                          MOVEQ     #0,D0
003e1c  3015                          MOVE.w    (A5),D0
003e1e  322d 0002                     MOVE.w    ($0002,a5),D1
003e22  3a2d 0004                     MOVE.w    ($0004,a5),D5
003e26  5345                          SUBQ.w    #1,D5
003e28  1db6 0800 1800                MOVE.b    $00(A6,D1.l),$00(A6,D1.l)
003e2e  5240                          ADDQ.w    #1,D0
003e30  5241                          ADDQ.w    #1,D1
003e32  51cd fff4                     DBF       D5,$00003828
003e36  3a80                          MOVE.w    D0,(A5)
003e38  3b41 0002                     MOVE.w    D1,$0002(A5)
003e3c  426d 0004                     CLR.w     $0004(A5)
003e40  4245                          CLR.w     D5
003e42  4240                          CLR.w     D0
003e44  1019                          MOVE.b    (A1)+,D0
003e46  d040                          ADD.w     D0,D0
003e48  3233 0000                     MOVE.w    $00(A3,D0),D1
003e4c  4ef3 1000                     JMP       $00(A3,D1)
        op_edb1:                      ; cpir
003e50  3215                          MOVE.w    (A5),D1
003e52  302d 0004                     MOVE.w    ($0004,a5),D0
003e56  5340                          SUBQ.w    #1,D0
003e58  5341                          SUBQ.w    #1,D1
003e5a  5241                          ADDQ.w    #1,D1
003e5c  be36 1800                     CMP.b     $00(A6,D1.l),D7
003e60  57c8 fff8                     DBEQ      D0,$0000385a
003e64  5bc2                          SMI       D2
003e66  57c3                          SEQ       D3
003e68  6702                          BEQ       $0000386c
003e6a  5240                          ADDQ.w    #1,D0
003e6c  4a40                          TST.w     D0
003e6e  56c5                          SNE       D5
003e70  5241                          ADDQ.w    #1,D1
003e72  3a81                          MOVE.w    D1,(A5)
003e74  3b40 0004                     MOVE.w    D0,$0004(A5)
003e78  4240                          CLR.w     D0
003e7a  1019                          MOVE.b    (A1)+,D0
003e7c  d040                          ADD.w     D0,D0
003e7e  3233 0000                     MOVE.w    $00(A3,D0),D1
003e82  4ef3 1000                     JMP       $00(A3,D1)
        op_edb2:                      ; inir
003e86  102d 0005                     MOVE.b    ($0005,a5),D0
003e8a  48e7 017e                     MOVEM.l   A6/A5/A4/A3/A2/A1/D7,-(A7)
003e8e  206d 0030                     MOVEA.l   $0030(A5),A0
003e92  4e90                          JSR       (A0)
003e94  4cdf 7e80                     MOVEM.l   (A7)+,D7/A1/A2/A3/A4/A5/A6
003e98  7200                          MOVEQ     #0,D1
003e9a  3215                          MOVE.w    (A5),D1
003e9c  1d80 1800                     MOVE.b    D0,$00(A6,D1.l)
003ea0  5255                          ADDQ.w    #1,(A5)
003ea2  532d 0004                     SUBQ.b    #1,$0004(A5)
003ea6  66de                          BNE       $00003886
003ea8  76ff                          MOVEQ     #-1,D3
003eaa  4240                          CLR.w     D0
003eac  1019                          MOVE.b    (A1)+,D0
003eae  d040                          ADD.w     D0,D0
003eb0  3233 0000                     MOVE.w    $00(A3,D0),D1
003eb4  4ef3 1000                     JMP       $00(A3,D1)
        op_edb3:                      ; otir
003eb8  102d 0005                     MOVE.b    ($0005,a5),D0
003ebc  3215                          MOVE.w    (A5),D1
003ebe  1236 1800                     MOVE.b    $00(A6,D1.l),D1
003ec2  48e7 017e                     MOVEM.l   A6/A5/A4/A3/A2/A1/D7,-(A7)
003ec6  206d 0034                     MOVEA.l   $0034(A5),A0
003eca  4e90                          JSR       (A0)
003ecc  4cdf 7e80                     MOVEM.l   (A7)+,D7/A1/A2/A3/A4/A5/A6
003ed0  7200                          MOVEQ     #0,D1
003ed2  5255                          ADDQ.w    #1,(A5)
003ed4  532d 0004                     SUBQ.b    #1,$0004(A5)
003ed8  66de                          BNE       $000038b8
003eda  76ff                          MOVEQ     #-1,D3
003edc  4240                          CLR.w     D0
003ede  1019                          MOVE.b    (A1)+,D0
003ee0  d040                          ADD.w     D0,D0
003ee2  3233 0000                     MOVE.w    $00(A3,D0),D1
003ee6  4ef3 1000                     JMP       $00(A3,D1)
        op_edb8:                      ; lddr
003eea  7000                          MOVEQ     #0,D0
003eec  3015                          MOVE.w    (A5),D0
003eee  322d 0002                     MOVE.w    ($0002,a5),D1
003ef2  3a2d 0004                     MOVE.w    ($0004,a5),D5
003ef6  5345                          SUBQ.w    #1,D5
003ef8  1db6 0800 1800                MOVE.b    $00(A6,D1.l),$00(A6,D1.l)
003efe  5340                          SUBQ.w    #1,D0
003f00  5341                          SUBQ.w    #1,D1
003f02  51cd fff4                     DBF       D5,$000038f8
003f06  3a80                          MOVE.w    D0,(A5)
003f08  3b41 0002                     MOVE.w    D1,$0002(A5)
003f0c  426d 0004                     CLR.w     $0004(A5)
003f10  4245                          CLR.w     D5
003f12  4240                          CLR.w     D0
003f14  1019                          MOVE.b    (A1)+,D0
003f16  d040                          ADD.w     D0,D0
003f18  3233 0000                     MOVE.w    $00(A3,D0),D1
003f1c  4ef3 1000                     JMP       $00(A3,D1)
        op_edb9:                      ; cpdr
003f20  3215                          MOVE.w    (A5),D1
003f22  302d 0004                     MOVE.w    ($0004,a5),D0
003f26  5340                          SUBQ.w    #1,D0
003f28  5241                          ADDQ.w    #1,D1
003f2a  5341                          SUBQ.w    #1,D1
003f2c  be36 1800                     CMP.b     $00(A6,D1.l),D7
003f30  57c8 fff8                     DBEQ      D0,$0000392a
003f34  5bc2                          SMI       D2
003f36  57c3                          SEQ       D3
003f38  6702                          BEQ       $0000393c
003f3a  5240                          ADDQ.w    #1,D0
003f3c  4a40                          TST.w     D0
003f3e  56c5                          SNE       D5
003f40  5341                          SUBQ.w    #1,D1
003f42  3a81                          MOVE.w    D1,(A5)
003f44  3b40 0004                     MOVE.w    D0,$0004(A5)
003f48  4240                          CLR.w     D0
003f4a  1019                          MOVE.b    (A1)+,D0
003f4c  d040                          ADD.w     D0,D0
003f4e  3233 0000                     MOVE.w    $00(A3,D0),D1
003f52  4ef3 1000                     JMP       $00(A3,D1)
        op_edba:                      ; indr
003f56  102d 0005                     MOVE.b    ($0005,a5),D0
003f5a  48e7 017e                     MOVEM.l   A6/A5/A4/A3/A2/A1/D7,-(A7)
003f5e  206d 0030                     MOVEA.l   $0030(A5),A0
003f62  4e90                          JSR       (A0)
003f64  4cdf 7e80                     MOVEM.l   (A7)+,D7/A1/A2/A3/A4/A5/A6
003f68  7200                          MOVEQ     #0,D1
003f6a  3215                          MOVE.w    (A5),D1
003f6c  1d80 1800                     MOVE.b    D0,$00(A6,D1.l)
003f70  5355                          SUBQ.w    #1,(A5)
003f72  532d 0004                     SUBQ.b    #1,$0004(A5)
003f76  66de                          BNE       $00003956
003f78  76ff                          MOVEQ     #-1,D3
003f7a  4240                          CLR.w     D0
003f7c  1019                          MOVE.b    (A1)+,D0
003f7e  d040                          ADD.w     D0,D0
003f80  3233 0000                     MOVE.w    $00(A3,D0),D1
003f84  4ef3 1000                     JMP       $00(A3,D1)
        op_edbb:                      ; otdr
003f88  102d 0005                     MOVE.b    ($0005,a5),D0
003f8c  3215                          MOVE.w    (A5),D1
003f8e  1236 1800                     MOVE.b    $00(A6,D1.l),D1
003f92  48e7 017e                     MOVEM.l   A6/A5/A4/A3/A2/A1/D7,-(A7)
003f96  206d 0034                     MOVEA.l   $0034(A5),A0
003f9a  4e90                          JSR       (A0)
003f9c  4cdf 7e80                     MOVEM.l   (A7)+,D7/A1/A2/A3/A4/A5/A6
003fa0  7200                          MOVEQ     #0,D1
003fa2  5355                          SUBQ.w    #1,(A5)
003fa4  532d 0004                     SUBQ.b    #1,$0004(A5)
003fa8  66de                          BNE       $00003988
003faa  76ff                          MOVEQ     #-1,D3
003fac  4240                          CLR.w     D0
003fae  1019                          MOVE.b    (A1)+,D0
003fb0  d040                          ADD.w     D0,D0
003fb2  3233 0000                     MOVE.w    $00(A3,D0),D1
003fb6  4ef3 1000                     JMP       $00(A3,D1)
        table_opdd:
003fba  ffff                          op_undefined - dc.w  table_opdd
003fbc  ffff                          op_undefined - dc.w  table_opdd
003fbe  ffff                          op_undefined - dc.w  table_opdd
003fc0  ffff                          op_undefined - dc.w  table_opdd
003fc2  ffff                          op_undefined - dc.w  table_opdd
003fc4  ffff                          op_undefined - dc.w  table_opdd
003fc6  ffff                          op_undefined - dc.w  table_opdd
003fc8  ffff                          op_undefined - dc.w  table_opdd
003fca  ffff                          op_undefined - dc.w  table_opdd
003fcc  0200                          op_dd09 - dc.w  table_opdd
003fce  ffff                          op_undefined - dc.w  table_opdd
003fd0  ffff                          op_undefined - dc.w  table_opdd
003fd2  ffff                          op_undefined - dc.w  table_opdd
003fd4  ffff                          op_undefined - dc.w  table_opdd
003fd6  ffff                          op_undefined - dc.w  table_opdd
003fd8  ffff                          op_undefined - dc.w  table_opdd
003fda  ffff                          op_undefined - dc.w  table_opdd
003fdc  ffff                          op_undefined - dc.w  table_opdd
003fde  ffff                          op_undefined - dc.w  table_opdd
003fe0  ffff                          op_undefined - dc.w  table_opdd
003fe2  ffff                          op_undefined - dc.w  table_opdd
003fe4  ffff                          op_undefined - dc.w  table_opdd
003fe6  ffff                          op_undefined - dc.w  table_opdd
003fe8  ffff                          op_undefined - dc.w  table_opdd
003fea  ffff                          op_undefined - dc.w  table_opdd
003fec  0216                          op_dd19 - dc.w  table_opdd
003fee  ffff                          op_undefined - dc.w  table_opdd
003ff0  ffff                          op_undefined - dc.w  table_opdd
003ff2  ffff                          op_undefined - dc.w  table_opdd
003ff4  ffff                          op_undefined - dc.w  table_opdd
003ff6  ffff                          op_undefined - dc.w  table_opdd
003ff8  ffff                          op_undefined - dc.w  table_opdd
003ffa  ffff                          op_undefined - dc.w  table_opdd
003ffc  022c                          op_dd21 - dc.w  table_opdd
003ffe  0240                          op_dd22 - dc.w  table_opdd
004000  0260                          op_dd23 - dc.w  table_opdd
004002  ffff                          op_undefined - dc.w  table_opdd
004004  ffff                          op_undefined - dc.w  table_opdd
004006  ffff                          op_undefined - dc.w  table_opdd
004008  ffff                          op_undefined - dc.w  table_opdd
00400a  ffff                          op_undefined - dc.w  table_opdd
00400c  0270                          op_dd29 - dc.w  table_opdd
00400e  0282                          op_dd2a - dc.w  table_opdd
004010  02a2                          op_dd2b - dc.w  table_opdd
004012  ffff                          op_undefined - dc.w  table_opdd
004014  ffff                          op_undefined - dc.w  table_opdd
004016  ffff                          op_undefined - dc.w  table_opdd
004018  ffff                          op_undefined - dc.w  table_opdd
00401a  ffff                          op_undefined - dc.w  table_opdd
00401c  ffff                          op_undefined - dc.w  table_opdd
00401e  ffff                          op_undefined - dc.w  table_opdd
004020  ffff                          op_undefined - dc.w  table_opdd
004022  02b2                          op_dd34 - dc.w  table_opdd
004024  02de                          op_dd35 - dc.w  table_opdd
004026  030a                          op_dd36 - dc.w  table_opdd
004028  ffff                          op_undefined - dc.w  table_opdd
00402a  ffff                          op_undefined - dc.w  table_opdd
00402c  0322                          op_dd39 - dc.w  table_opdd
00402e  ffff                          op_undefined - dc.w  table_opdd
004030  ffff                          op_undefined - dc.w  table_opdd
004032  ffff                          op_undefined - dc.w  table_opdd
004034  ffff                          op_undefined - dc.w  table_opdd
004036  ffff                          op_undefined - dc.w  table_opdd
004038  ffff                          op_undefined - dc.w  table_opdd
00403a  ffff                          op_undefined - dc.w  table_opdd
00403c  ffff                          op_undefined - dc.w  table_opdd
00403e  ffff                          op_undefined - dc.w  table_opdd
004040  ffff                          op_undefined - dc.w  table_opdd
004042  ffff                          op_undefined - dc.w  table_opdd
004044  ffff                          op_undefined - dc.w  table_opdd
004046  0338                          op_dd46 - dc.w  table_opdd
004048  ffff                          op_undefined - dc.w  table_opdd
00404a  ffff                          op_undefined - dc.w  table_opdd
00404c  ffff                          op_undefined - dc.w  table_opdd
00404e  ffff                          op_undefined - dc.w  table_opdd
004050  ffff                          op_undefined - dc.w  table_opdd
004052  ffff                          op_undefined - dc.w  table_opdd
004054  ffff                          op_undefined - dc.w  table_opdd
004056  0352                          op_dd4e - dc.w  table_opdd
004058  ffff                          op_undefined - dc.w  table_opdd
00405a  ffff                          op_undefined - dc.w  table_opdd
00405c  ffff                          op_undefined - dc.w  table_opdd
00405e  ffff                          op_undefined - dc.w  table_opdd
004060  ffff                          op_undefined - dc.w  table_opdd
004062  ffff                          op_undefined - dc.w  table_opdd
004064  ffff                          op_undefined - dc.w  table_opdd
004066  036c                          op_dd56 - dc.w  table_opdd
004068  ffff                          op_undefined - dc.w  table_opdd
00406a  ffff                          op_undefined - dc.w  table_opdd
00406c  ffff                          op_undefined - dc.w  table_opdd
00406e  ffff                          op_undefined - dc.w  table_opdd
004070  ffff                          op_undefined - dc.w  table_opdd
004072  ffff                          op_undefined - dc.w  table_opdd
004074  ffff                          op_undefined - dc.w  table_opdd
004076  0386                          op_dd5e - dc.w  table_opdd
004078  ffff                          op_undefined - dc.w  table_opdd
00407a  ffff                          op_undefined - dc.w  table_opdd
00407c  ffff                          op_undefined - dc.w  table_opdd
00407e  ffff                          op_undefined - dc.w  table_opdd
004080  ffff                          op_undefined - dc.w  table_opdd
004082  ffff                          op_undefined - dc.w  table_opdd
004084  ffff                          op_undefined - dc.w  table_opdd
004086  03a0                          op_dd66 - dc.w  table_opdd
004088  ffff                          op_undefined - dc.w  table_opdd
00408a  ffff                          op_undefined - dc.w  table_opdd
00408c  ffff                          op_undefined - dc.w  table_opdd
00408e  ffff                          op_undefined - dc.w  table_opdd
004090  ffff                          op_undefined - dc.w  table_opdd
004092  ffff                          op_undefined - dc.w  table_opdd
004094  ffff                          op_undefined - dc.w  table_opdd
004096  03b8                          op_dd6e - dc.w  table_opdd
004098  ffff                          op_undefined - dc.w  table_opdd
00409a  03d2                          op_dd70 - dc.w  table_opdd
00409c  03ec                          op_dd71 - dc.w  table_opdd
00409e  0406                          op_dd72 - dc.w  table_opdd
0040a0  0420                          op_dd73 - dc.w  table_opdd
0040a2  043a                          op_dd74 - dc.w  table_opdd
0040a4  0452                          op_dd75 - dc.w  table_opdd
0040a6  ffff                          op_undefined - dc.w  table_opdd
0040a8  046c                          op_dd77 - dc.w  table_opdd
0040aa  ffff                          op_undefined - dc.w  table_opdd
0040ac  ffff                          op_undefined - dc.w  table_opdd
0040ae  ffff                          op_undefined - dc.w  table_opdd
0040b0  ffff                          op_undefined - dc.w  table_opdd
0040b2  ffff                          op_undefined - dc.w  table_opdd
0040b4  ffff                          op_undefined - dc.w  table_opdd
0040b6  0484                          op_dd7e - dc.w  table_opdd
0040b8  ffff                          op_undefined - dc.w  table_opdd
0040ba  ffff                          op_undefined - dc.w  table_opdd
0040bc  ffff                          op_undefined - dc.w  table_opdd
0040be  ffff                          op_undefined - dc.w  table_opdd
0040c0  ffff                          op_undefined - dc.w  table_opdd
0040c2  ffff                          op_undefined - dc.w  table_opdd
0040c4  ffff                          op_undefined - dc.w  table_opdd
0040c6  049c                          op_dd86 - dc.w  table_opdd
0040c8  ffff                          op_undefined - dc.w  table_opdd
0040ca  ffff                          op_undefined - dc.w  table_opdd
0040cc  ffff                          op_undefined - dc.w  table_opdd
0040ce  ffff                          op_undefined - dc.w  table_opdd
0040d0  ffff                          op_undefined - dc.w  table_opdd
0040d2  ffff                          op_undefined - dc.w  table_opdd
0040d4  ffff                          op_undefined - dc.w  table_opdd
0040d6  04d2                          op_dd8e - dc.w  table_opdd
0040d8  ffff                          op_undefined - dc.w  table_opdd
0040da  ffff                          op_undefined - dc.w  table_opdd
0040dc  ffff                          op_undefined - dc.w  table_opdd
0040de  ffff                          op_undefined - dc.w  table_opdd
0040e0  ffff                          op_undefined - dc.w  table_opdd
0040e2  ffff                          op_undefined - dc.w  table_opdd
0040e4  ffff                          op_undefined - dc.w  table_opdd
0040e6  0510                          op_dd96 - dc.w  table_opdd
0040e8  ffff                          op_undefined - dc.w  table_opdd
0040ea  ffff                          op_undefined - dc.w  table_opdd
0040ec  ffff                          op_undefined - dc.w  table_opdd
0040ee  ffff                          op_undefined - dc.w  table_opdd
0040f0  ffff                          op_undefined - dc.w  table_opdd
0040f2  ffff                          op_undefined - dc.w  table_opdd
0040f4  ffff                          op_undefined - dc.w  table_opdd
0040f6  0546                          op_dd9e - dc.w  table_opdd
0040f8  ffff                          op_undefined - dc.w  table_opdd
0040fa  ffff                          op_undefined - dc.w  table_opdd
0040fc  ffff                          op_undefined - dc.w  table_opdd
0040fe  ffff                          op_undefined - dc.w  table_opdd
004100  ffff                          op_undefined - dc.w  table_opdd
004102  ffff                          op_undefined - dc.w  table_opdd
004104  ffff                          op_undefined - dc.w  table_opdd
004106  0584                          op_dda6 - dc.w  table_opdd
004108  ffff                          op_undefined - dc.w  table_opdd
00410a  ffff                          op_undefined - dc.w  table_opdd
00410c  ffff                          op_undefined - dc.w  table_opdd
00410e  ffff                          op_undefined - dc.w  table_opdd
004110  ffff                          op_undefined - dc.w  table_opdd
004112  ffff                          op_undefined - dc.w  table_opdd
004114  ffff                          op_undefined - dc.w  table_opdd
004116  05a4                          op_ddae - dc.w  table_opdd
004118  ffff                          op_undefined - dc.w  table_opdd
00411a  ffff                          op_undefined - dc.w  table_opdd
00411c  ffff                          op_undefined - dc.w  table_opdd
00411e  ffff                          op_undefined - dc.w  table_opdd
004120  ffff                          op_undefined - dc.w  table_opdd
004122  ffff                          op_undefined - dc.w  table_opdd
004124  ffff                          op_undefined - dc.w  table_opdd
004126  05c6                          op_ddb6 - dc.w  table_opdd
004128  ffff                          op_undefined - dc.w  table_opdd
00412a  ffff                          op_undefined - dc.w  table_opdd
00412c  ffff                          op_undefined - dc.w  table_opdd
00412e  ffff                          op_undefined - dc.w  table_opdd
004130  ffff                          op_undefined - dc.w  table_opdd
004132  ffff                          op_undefined - dc.w  table_opdd
004134  ffff                          op_undefined - dc.w  table_opdd
004136  05e6                          op_ddbe - dc.w  table_opdd
004138  ffff                          op_undefined - dc.w  table_opdd
00413a  ffff                          op_undefined - dc.w  table_opdd
00413c  ffff                          op_undefined - dc.w  table_opdd
00413e  ffff                          op_undefined - dc.w  table_opdd
004140  ffff                          op_undefined - dc.w  table_opdd
004142  ffff                          op_undefined - dc.w  table_opdd
004144  ffff                          op_undefined - dc.w  table_opdd
004146  ffff                          op_undefined - dc.w  table_opdd
004148  ffff                          op_undefined - dc.w  table_opdd
00414a  ffff                          op_undefined - dc.w  table_opdd
00414c  ffff                          op_undefined - dc.w  table_opdd
00414e  ffff                          op_undefined - dc.w  table_opdd
004150  0608                          op_ddcb - dc.w  table_opdd
004152  ffff                          op_undefined - dc.w  table_opdd
004154  ffff                          op_undefined - dc.w  table_opdd
004156  ffff                          op_undefined - dc.w  table_opdd
004158  ffff                          op_undefined - dc.w  table_opdd
00415a  ffff                          op_undefined - dc.w  table_opdd
00415c  ffff                          op_undefined - dc.w  table_opdd
00415e  ffff                          op_undefined - dc.w  table_opdd
004160  ffff                          op_undefined - dc.w  table_opdd
004162  ffff                          op_undefined - dc.w  table_opdd
004164  ffff                          op_undefined - dc.w  table_opdd
004166  ffff                          op_undefined - dc.w  table_opdd
004168  ffff                          op_undefined - dc.w  table_opdd
00416a  ffff                          op_undefined - dc.w  table_opdd
00416c  ffff                          op_undefined - dc.w  table_opdd
00416e  ffff                          op_undefined - dc.w  table_opdd
004170  ffff                          op_undefined - dc.w  table_opdd
004172  ffff                          op_undefined - dc.w  table_opdd
004174  ffff                          op_undefined - dc.w  table_opdd
004176  ffff                          op_undefined - dc.w  table_opdd
004178  ffff                          op_undefined - dc.w  table_opdd
00417a  ffff                          op_undefined - dc.w  table_opdd
00417c  0622                          op_dde1 - dc.w  table_opdd
00417e  ffff                          op_undefined - dc.w  table_opdd
004180  0638                          op_dde3 - dc.w  table_opdd
004182  ffff                          op_undefined - dc.w  table_opdd
004184  065a                          op_dde5 - dc.w  table_opdd
004186  ffff                          op_undefined - dc.w  table_opdd
004188  ffff                          op_undefined - dc.w  table_opdd
00418a  ffff                          op_undefined - dc.w  table_opdd
00418c  0670                          op_dde9 - dc.w  table_opdd
00418e  ffff                          op_undefined - dc.w  table_opdd
004190  ffff                          op_undefined - dc.w  table_opdd
004192  ffff                          op_undefined - dc.w  table_opdd
004194  ffff                          op_undefined - dc.w  table_opdd
004196  ffff                          op_undefined - dc.w  table_opdd
004198  ffff                          op_undefined - dc.w  table_opdd
00419a  ffff                          op_undefined - dc.w  table_opdd
00419c  ffff                          op_undefined - dc.w  table_opdd
00419e  ffff                          op_undefined - dc.w  table_opdd
0041a0  ffff                          op_undefined - dc.w  table_opdd
0041a2  ffff                          op_undefined - dc.w  table_opdd
0041a4  ffff                          op_undefined - dc.w  table_opdd
0041a6  ffff                          op_undefined - dc.w  table_opdd
0041a8  ffff                          op_undefined - dc.w  table_opdd
0041aa  ffff                          op_undefined - dc.w  table_opdd
0041ac  0686                          op_ddf9 - dc.w  table_opdd
0041ae  ffff                          op_undefined - dc.w  table_opdd
0041b0  ffff                          op_undefined - dc.w  table_opdd
0041b2  ffff                          op_undefined - dc.w  table_opdd
0041b4  ffff                          op_undefined - dc.w  table_opdd
0041b6  ffff                          op_undefined - dc.w  table_opdd
0041b8  ffff                          op_undefined - dc.w  table_opdd
        op_dd09:                      ; add ix,bc
0041ba  322d 0004                     MOVE.w    ($0004,a5),D1
0041be  d36d 0018                     ADD.w     D1,$0018(A5)
0041c2  55c6                          SCS       D6
0041c4  1019                          MOVE.b    (A1)+,D0
0041c6  d040                          ADD.w     D0,D0
0041c8  3233 0000                     MOVE.w    $00(A3,D0),D1
0041cc  4ef3 1000                     JMP       $00(A3,D1)
        op_dd19:                      ; add ix,de
0041d0  322d 0002                     MOVE.w    ($0002,a5),D1
0041d4  d36d 0018                     ADD.w     D1,$0018(A5)
0041d8  55c6                          SCS       D6
0041da  1019                          MOVE.b    (A1)+,D0
0041dc  d040                          ADD.w     D0,D0
0041de  3233 0000                     MOVE.w    $00(A3,D0),D1
0041e2  4ef3 1000                     JMP       $00(A3,D1)
        op_dd21:                      ; ld ix,nn
0041e6  1b59 0019                     MOVE.b    (A1)+,$0019(A5)
0041ea  1b59 0018                     MOVE.b    (A1)+,$0018(A5)
0041ee  1019                          MOVE.b    (A1)+,D0
0041f0  d040                          ADD.w     D0,D0
0041f2  3233 0000                     MOVE.w    $00(A3,D0),D1
0041f6  4ef3 1000                     JMP       $00(A3,D1)
        op_dd22:                      ; ld (nn),ix
0041fa  1019                          MOVE.b    (A1)+,D0
0041fc  1219                          MOVE.b    (A1)+,D1
0041fe  e059                          ROR.w     #8,D1
004200  1200                          MOVE.b    D0,D1
004202  1dad 0019 1800                MOVE.b    ($0019,a5),$00(A6,D1.l)
004208  1dad 0018 1801                MOVE.b    ($0018,a5),$01(A6,D1.l)
00420e  1019                          MOVE.b    (A1)+,D0
004210  d040                          ADD.w     D0,D0
004212  3233 0000                     MOVE.w    $00(A3,D0),D1
004216  4ef3 1000                     JMP       $00(A3,D1)
        op_dd23:                      ; inc ix
00421a  526d 0018                     ADDQ.w    #1,$0018(A5)
00421e  1019                          MOVE.b    (A1)+,D0
004220  d040                          ADD.w     D0,D0
004222  3233 0000                     MOVE.w    $00(A3,D0),D1
004226  4ef3 1000                     JMP       $00(A3,D1)
        op_dd29:                      ; add ix,ix
00422a  e3ed 0018                     LSL       $0018(A5)
00422e  55c6                          SCS       D6
004230  1019                          MOVE.b    (A1)+,D0
004232  d040                          ADD.w     D0,D0
004234  3233 0000                     MOVE.w    $00(A3,D0),D1
004238  4ef3 1000                     JMP       $00(A3,D1)
        op_dd2a:                      ; ld ix,(nn)
00423c  1019                          MOVE.b    (A1)+,D0
00423e  1219                          MOVE.b    (A1)+,D1
004240  e059                          ROR.w     #8,D1
004242  1200                          MOVE.b    D0,D1
004244  1b76 1800 0019                MOVE.b    $19(A6,D0),$0019(A5)
00424a  1b76 1801 0018                MOVE.b    $18(A6,D0),$0018(A5)
004250  1019                          MOVE.b    (A1)+,D0
004252  d040                          ADD.w     D0,D0
004254  3233 0000                     MOVE.w    $00(A3,D0),D1
004258  4ef3 1000                     JMP       $00(A3,D1)
        op_dd2b:                      ; dec ix
00425c  536d 0018                     SUBQ.w    #1,$0018(A5)
004260  1019                          MOVE.b    (A1)+,D0
004262  d040                          ADD.w     D0,D0
004264  3233 0000                     MOVE.w    $00(A3,D0),D1
004268  4ef3 1000                     JMP       $00(A3,D1)
        op_dd34:                      ; inc (ix+d)
00426c  1219                          MOVE.b    (A1)+,D1
00426e  4881                          EXT.w     D1
004270  d26d 0018                     ADD.w     $0018(A5),D1
004274  5236 1800                     ADDQ.b    #1,$00(A6,D1.l)
004278  59c5                          SVS       D5
00427a  57c3                          SEQ       D3
00427c  5bc2                          SMI       D2
00427e  1236 1800                     MOVE.b    $00(A6,D1.l),D1
004282  c23c 000f                     AND.b     #$000f,D1
004286  57c4                          SEQ       D4
004288  cc7c 7fff                     AND.w     #$7fff,D6
00428c  1019                          MOVE.b    (A1)+,D0
00428e  d040                          ADD.w     D0,D0
004290  3233 0000                     MOVE.w    $00(A3,D0),D1
004294  4ef3 1000                     JMP       $00(A3,D1)
        op_dd35:                      ; dec (ix+d)
004298  1219                          MOVE.b    (A1)+,D1
00429a  4881                          EXT.w     D1
00429c  d26d 0018                     ADD.w     $0018(A5),D1
0042a0  1036 1800                     MOVE.b    $00(A6,D1.l),D0
0042a4  c03c 000f                     AND.b     #$000f,D0
0042a8  57c4                          SEQ       D4
0042aa  5336 1800                     SUBQ.b    #1,$00(A6,D1.l)
0042ae  59c5                          SVS       D5
0042b0  57c3                          SEQ       D3
0042b2  5bc2                          SMI       D2
0042b4  8c7c 8000                     OR.w      #$8000,D6
0042b8  1019                          MOVE.b    (A1)+,D0
0042ba  d040                          ADD.w     D0,D0
0042bc  3233 0000                     MOVE.w    $00(A3,D0),D1
0042c0  4ef3 1000                     JMP       $00(A3,D1)
        op_dd36:                      ; ld (ix+d),n
0042c4  1219                          MOVE.b    (A1)+,D1
0042c6  4881                          EXT.w     D1
0042c8  d26d 0018                     ADD.w     $0018(A5),D1
0042cc  1d99 1800                     MOVE.b    (A1)+,$00(A6,D1.l)
0042d0  1019                          MOVE.b    (A1)+,D0
0042d2  d040                          ADD.w     D0,D0
0042d4  3233 0000                     MOVE.w    $00(A3,D0),D1
0042d8  4ef3 1000                     JMP       $00(A3,D1)
        op_dd39:                      ; add ix,sp
0042dc  220a                          MOVE.l    A2,D1
0042de  928e                          SUB.l     A6,D1
0042e0  d36d 0018                     ADD.w     D1,$0018(A5)
0042e4  55c6                          SCS       D6
0042e6  1019                          MOVE.b    (A1)+,D0
0042e8  d040                          ADD.w     D0,D0
0042ea  3233 0000                     MOVE.w    $00(A3,D0),D1
0042ee  4ef3 1000                     JMP       $00(A3,D1)
        op_dd46:                      ; ld b,(ix+d)
0042f2  1219                          MOVE.b    (A1)+,D1
0042f4  4881                          EXT.w     D1
0042f6  d26d 0018                     ADD.w     $0018(A5),D1
0042fa  1b76 1800 0004                MOVE.b    $04(A6,D0),$0004(A5)
004300  1019                          MOVE.b    (A1)+,D0
004302  d040                          ADD.w     D0,D0
004304  3233 0000                     MOVE.w    $00(A3,D0),D1
004308  4ef3 1000                     JMP       $00(A3,D1)
        op_dd4e:                      ; ld c,(ix+d)
00430c  1219                          MOVE.b    (A1)+,D1
00430e  4881                          EXT.w     D1
004310  d26d 0018                     ADD.w     $0018(A5),D1
004314  1b76 1800 0005                MOVE.b    $05(A6,D0),$0005(A5)
00431a  1019                          MOVE.b    (A1)+,D0
00431c  d040                          ADD.w     D0,D0
00431e  3233 0000                     MOVE.w    $00(A3,D0),D1
004322  4ef3 1000                     JMP       $00(A3,D1)
        op_dd56:                      ; ld d,(ix+d)
004326  1219                          MOVE.b    (A1)+,D1
004328  4881                          EXT.w     D1
00432a  d26d 0018                     ADD.w     $0018(A5),D1
00432e  1b76 1800 0002                MOVE.b    $02(A6,D0),$0002(A5)
004334  1019                          MOVE.b    (A1)+,D0
004336  d040                          ADD.w     D0,D0
004338  3233 0000                     MOVE.w    $00(A3,D0),D1
00433c  4ef3 1000                     JMP       $00(A3,D1)
        op_dd5e:                      ; ld e,(ix+d)
004340  1219                          MOVE.b    (A1)+,D1
004342  4881                          EXT.w     D1
004344  d26d 0018                     ADD.w     $0018(A5),D1
004348  1b76 1800 0003                MOVE.b    $03(A6,D0),$0003(A5)
00434e  1019                          MOVE.b    (A1)+,D0
004350  d040                          ADD.w     D0,D0
004352  3233 0000                     MOVE.w    $00(A3,D0),D1
004356  4ef3 1000                     JMP       $00(A3,D1)
        op_dd66:                      ; ld h,(ix+d)
00435a  1219                          MOVE.b    (A1)+,D1
00435c  4881                          EXT.w     D1
00435e  d26d 0018                     ADD.w     $0018(A5),D1
004362  1ab6 1800                     MOVE.b    $00(A6,D1.l),(A5)
004366  1019                          MOVE.b    (A1)+,D0
004368  d040                          ADD.w     D0,D0
00436a  3233 0000                     MOVE.w    $00(A3,D0),D1
00436e  4ef3 1000                     JMP       $00(A3,D1)
        op_dd6e:                      ; ld l,(ix+d)
004372  1219                          MOVE.b    (A1)+,D1
004374  4881                          EXT.w     D1
004376  d26d 0018                     ADD.w     $0018(A5),D1
00437a  1b76 1800 0001                MOVE.b    $01(A6,D0),$0001(A5)
004380  1019                          MOVE.b    (A1)+,D0
004382  d040                          ADD.w     D0,D0
004384  3233 0000                     MOVE.w    $00(A3,D0),D1
004388  4ef3 1000                     JMP       $00(A3,D1)
        op_dd70:                      ; ld (ix+d),b
00438c  1219                          MOVE.b    (A1)+,D1
00438e  4881                          EXT.w     D1
004390  d26d 0018                     ADD.w     $0018(A5),D1
004394  1dad 0004 1800                MOVE.b    ($0004,a5),$00(A6,D1.l)
00439a  1019                          MOVE.b    (A1)+,D0
00439c  d040                          ADD.w     D0,D0
00439e  3233 0000                     MOVE.w    $00(A3,D0),D1
0043a2  4ef3 1000                     JMP       $00(A3,D1)
        op_dd71:                      ; ld (ix+d),c
0043a6  1219                          MOVE.b    (A1)+,D1
0043a8  4881                          EXT.w     D1
0043aa  d26d 0018                     ADD.w     $0018(A5),D1
0043ae  1dad 0005 1800                MOVE.b    ($0005,a5),$00(A6,D1.l)
0043b4  1019                          MOVE.b    (A1)+,D0
0043b6  d040                          ADD.w     D0,D0
0043b8  3233 0000                     MOVE.w    $00(A3,D0),D1
0043bc  4ef3 1000                     JMP       $00(A3,D1)
        op_dd72:                      ; ld (ix+d),d
0043c0  1219                          MOVE.b    (A1)+,D1
0043c2  4881                          EXT.w     D1
0043c4  d26d 0018                     ADD.w     $0018(A5),D1
0043c8  1dad 0002 1800                MOVE.b    ($0002,a5),$00(A6,D1.l)
0043ce  1019                          MOVE.b    (A1)+,D0
0043d0  d040                          ADD.w     D0,D0
0043d2  3233 0000                     MOVE.w    $00(A3,D0),D1
0043d6  4ef3 1000                     JMP       $00(A3,D1)
        op_dd73:                      ; ld (ix+d),e
0043da  1219                          MOVE.b    (A1)+,D1
0043dc  4881                          EXT.w     D1
0043de  d26d 0018                     ADD.w     $0018(A5),D1
0043e2  1dad 0003 1800                MOVE.b    ($0003,a5),$00(A6,D1.l)
0043e8  1019                          MOVE.b    (A1)+,D0
0043ea  d040                          ADD.w     D0,D0
0043ec  3233 0000                     MOVE.w    $00(A3,D0),D1
0043f0  4ef3 1000                     JMP       $00(A3,D1)
        op_dd74:                      ; ld (ix+d),h
0043f4  1219                          MOVE.b    (A1)+,D1
0043f6  4881                          EXT.w     D1
0043f8  d26d 0018                     ADD.w     $0018(A5),D1
0043fc  1d95 1800                     MOVE.b    (A5),$00(A6,D1.l)
004400  1019                          MOVE.b    (A1)+,D0
004402  d040                          ADD.w     D0,D0
004404  3233 0000                     MOVE.w    $00(A3,D0),D1
004408  4ef3 1000                     JMP       $00(A3,D1)
        op_dd75:                      ; ld (ix+d),l
00440c  1219                          MOVE.b    (A1)+,D1
00440e  4881                          EXT.w     D1
004410  d26d 0018                     ADD.w     $0018(A5),D1
004414  1dad 0001 1800                MOVE.b    ($0001,a5),$00(A6,D1.l)
00441a  1019                          MOVE.b    (A1)+,D0
00441c  d040                          ADD.w     D0,D0
00441e  3233 0000                     MOVE.w    $00(A3,D0),D1
004422  4ef3 1000                     JMP       $00(A3,D1)
        op_dd77:                      ; ld (ix+d),a
004426  1219                          MOVE.b    (A1)+,D1
004428  4881                          EXT.w     D1
00442a  d26d 0018                     ADD.w     $0018(A5),D1
00442e  1d87 1800                     MOVE.b    D7,$00(A6,D1.l)
004432  1019                          MOVE.b    (A1)+,D0
004434  d040                          ADD.w     D0,D0
004436  3233 0000                     MOVE.w    $00(A3,D0),D1
00443a  4ef3 1000                     JMP       $00(A3,D1)
        op_dd7e:                      ; ld a,(ix+d)
00443e  1219                          MOVE.b    (A1)+,D1
004440  4881                          EXT.w     D1
004442  d26d 0018                     ADD.w     $0018(A5),D1
004446  1e36 1800                     MOVE.b    $00(A6,D1.l),D7
00444a  1019                          MOVE.b    (A1)+,D0
00444c  d040                          ADD.w     D0,D0
00444e  3233 0000                     MOVE.w    $00(A3,D0),D1
004452  4ef3 1000                     JMP       $00(A3,D1)
        op_dd86:                      ; add a,(ix+d)
004456  1007                          MOVE.b    D7,D0
004458  1219                          MOVE.b    (A1)+,D1
00445a  4881                          EXT.w     D1
00445c  d26d 0018                     ADD.w     $0018(A5),D1
004460  1236 1800                     MOVE.b    $00(A6,D1.l),D1
004464  de01                          ADD.b     D1,D7
004466  5bc2                          SMI       D2
004468  57c3                          SEQ       D3
00446a  59c5                          SVS       D5
00446c  55c6                          SCS       D6
00446e  803c 00f0                     OR.b      #$00f0,D0
004472  c23c 000f                     AND.b     #$000f,D1
004476  d001                          ADD.b     D1,D0
004478  55c4                          SCS       D4
00447a  cc7c 7fff                     AND.w     #$7fff,D6
00447e  4240                          CLR.w     D0
004480  1019                          MOVE.b    (A1)+,D0
004482  d040                          ADD.w     D0,D0
004484  3233 0000                     MOVE.w    $00(A3,D0),D1
004488  4ef3 1000                     JMP       $00(A3,D1)
        op_dd8e:                      ; adc a,(ix+d)
00448c  1007                          MOVE.b    D7,D0
00448e  1219                          MOVE.b    (A1)+,D1
004490  4881                          EXT.w     D1
004492  d26d 0018                     ADD.w     $0018(A5),D1
004496  1236 1800                     MOVE.b    $00(A6,D1.l),D1
00449a  1806                          MOVE.b    D6,D4
00449c  44c4                          MOVE      D4,ccr
00449e  df01                          ADDX.b    D1,D7
0044a0  5bc2                          SMI       D2
0044a2  59c5                          SVS       D5
0044a4  55c6                          SCS       D6
0044a6  4a07                          TST.b     D7
0044a8  57c3                          SEQ       D3
0044aa  803c 00f0                     OR.b      #$00f0,D0
0044ae  c23c 000f                     AND.b     #$000f,D1
0044b2  44c4                          MOVE      D4,ccr
0044b4  d101                          ADDX.b    D1,D0
0044b6  55c4                          SCS       D4
0044b8  cc7c 7fff                     AND.w     #$7fff,D6
0044bc  4240                          CLR.w     D0
0044be  1019                          MOVE.b    (A1)+,D0
0044c0  d040                          ADD.w     D0,D0
0044c2  3233 0000                     MOVE.w    $00(A3,D0),D1
0044c6  4ef3 1000                     JMP       $00(A3,D1)
        op_dd96:                      ; sub (ix+d)
0044ca  1007                          MOVE.b    D7,D0
0044cc  1219                          MOVE.b    (A1)+,D1
0044ce  4881                          EXT.w     D1
0044d0  d26d 0018                     ADD.w     $0018(A5),D1
0044d4  1236 1800                     MOVE.b    $00(A6,D1.l),D1
0044d8  9e01                          SUB.b     D1,D7
0044da  5bc2                          SMI       D2
0044dc  57c3                          SEQ       D3
0044de  59c5                          SVS       D5
0044e0  55c6                          SCS       D6
0044e2  c03c 000f                     AND.b     #$000f,D0
0044e6  c23c 000f                     AND.b     #$000f,D1
0044ea  9001                          SUB.b     D1,D0
0044ec  55c4                          SCS       D4
0044ee  8c7c 8000                     OR.w      #$8000,D6
0044f2  4240                          CLR.w     D0
0044f4  1019                          MOVE.b    (A1)+,D0
0044f6  d040                          ADD.w     D0,D0
0044f8  3233 0000                     MOVE.w    $00(A3,D0),D1
0044fc  4ef3 1000                     JMP       $00(A3,D1)
        op_dd9e:                      ; sbc a,(ix+d)
004500  1007                          MOVE.b    D7,D0
004502  1219                          MOVE.b    (A1)+,D1
004504  4881                          EXT.w     D1
004506  d26d 0018                     ADD.w     $0018(A5),D1
00450a  1236 1800                     MOVE.b    $00(A6,D1.l),D1
00450e  1806                          MOVE.b    D6,D4
004510  44c4                          MOVE      D4,ccr
004512  9f01                          SUBX.b    D1,D7
004514  5bc2                          SMI       D2
004516  59c5                          SVS       D5
004518  55c6                          SCS       D6
00451a  4a07                          TST.b     D7
00451c  57c3                          SEQ       D3
00451e  c03c 000f                     AND.b     #$000f,D0
004522  c23c 000f                     AND.b     #$000f,D1
004526  44c4                          MOVE      D4,ccr
004528  9101                          SUBX.b    D1,D0
00452a  55c4                          SCS       D4
00452c  8c7c 8000                     OR.w      #$8000,D6
004530  4240                          CLR.w     D0
004532  1019                          MOVE.b    (A1)+,D0
004534  d040                          ADD.w     D0,D0
004536  3233 0000                     MOVE.w    $00(A3,D0),D1
00453a  4ef3 1000                     JMP       $00(A3,D1)
        op_dda6:                      ; and (ix+d)
00453e  1219                          MOVE.b    (A1)+,D1
004540  4881                          EXT.w     D1
004542  d26d 0018                     ADD.w     $0018(A5),D1
004546  ce36 1800                     AND.b     $00(A6,D1.l),D7
00454a  5bc2                          SMI       D2
00454c  57c3                          SEQ       D3
00454e  51c6                          SF        D6
004550  4240                          CLR.w     D0
004552  1019                          MOVE.b    (A1)+,D0
004554  d040                          ADD.w     D0,D0
004556  3233 0000                     MOVE.w    $00(A3,D0),D1
00455a  4ef3 1000                     JMP       $00(A3,D1)
        op_ddae:                      ; xor (ix+d)
00455e  1219                          MOVE.b    (A1)+,D1
004560  4881                          EXT.w     D1
004562  d26d 0018                     ADD.w     $0018(A5),D1
004566  1036 1800                     MOVE.b    $00(A6,D1.l),D0
00456a  b107                          EOR.b     D0,D7
00456c  5bc2                          SMI       D2
00456e  57c3                          SEQ       D3
004570  51c6                          SF        D6
004572  4240                          CLR.w     D0
004574  1019                          MOVE.b    (A1)+,D0
004576  d040                          ADD.w     D0,D0
004578  3233 0000                     MOVE.w    $00(A3,D0),D1
00457c  4ef3 1000                     JMP       $00(A3,D1)
        op_ddb6:                      ; or (ix+d)
004580  1219                          MOVE.b    (A1)+,D1
004582  4881                          EXT.w     D1
004584  d26d 0018                     ADD.w     $0018(A5),D1
004588  8e36 1800                     OR.b      $00(A6,D1.l),D7
00458c  5bc2                          SMI       D2
00458e  57c3                          SEQ       D3
004590  51c6                          SF        D6
004592  4240                          CLR.w     D0
004594  1019                          MOVE.b    (A1)+,D0
004596  d040                          ADD.w     D0,D0
004598  3233 0000                     MOVE.w    $00(A3,D0),D1
00459c  4ef3 1000                     JMP       $00(A3,D1)
        op_ddbe:                      ; cp (ix+d)
0045a0  1219                          MOVE.b    (A1)+,D1
0045a2  4881                          EXT.w     D1
0045a4  d26d 0018                     ADD.w     $0018(A5),D1
0045a8  be36 1800                     CMP.b     $00(A6,D1.l),D7
0045ac  5bc2                          SMI       D2
0045ae  57c3                          SEQ       D3
0045b0  59c5                          SVS       D5
0045b2  55c6                          SCS       D6
0045b4  4240                          CLR.w     D0
0045b6  1019                          MOVE.b    (A1)+,D0
0045b8  d040                          ADD.w     D0,D0
0045ba  3233 0000                     MOVE.w    $00(A3,D0),D1
0045be  4ef3 1000                     JMP       $00(A3,D1)
        op_ddcb:                      ; redirect -->
0045c2  1219                          MOVE.b    (A1)+,D1
0045c4  4881                          EXT.w     D1
0045c6  d26d 0018                     ADD.w     $0018(A5),D1
0045ca  206d 002c                     MOVEA.l   $002c(A5),A0
0045ce  4240                          CLR.w     D0
0045d0  1019                          MOVE.b    (A1)+,D0
0045d2  d040                          ADD.w     D0,D0
0045d4  3030 0000                     MOVE.w    $00(A0,D0),D0
0045d8  4ef0 0000                     JMP       $00(A0,D0)
        op_dde1:                      ; pop ix
0045dc  1b5a 0019                     MOVE.b    (A2)+,$0019(A5)
0045e0  1b5a 0018                     MOVE.b    (A2)+,$0018(A5)
0045e4  4240                          CLR.w     D0
0045e6  1019                          MOVE.b    (A1)+,D0
0045e8  d040                          ADD.w     D0,D0
0045ea  3233 0000                     MOVE.w    $00(A3,D0),D1
0045ee  4ef3 1000                     JMP       $00(A3,D1)
        op_dde3:                      ; ex (sp),ix
0045f2  102d 0018                     MOVE.b    ($0018,a5),D0
0045f6  122d 0019                     MOVE.b    ($0019,a5),D1
0045fa  1b5a 0019                     MOVE.b    (A2)+,$0019(A5)
0045fe  1b52 0018                     MOVE.b    (A2),$0018(A5)
004602  1480                          MOVE.b    D0,(A2)
004604  1501                          MOVE.b    D1,-(A2)
004606  4240                          CLR.w     D0
004608  1019                          MOVE.b    (A1)+,D0
00460a  d040                          ADD.w     D0,D0
00460c  3233 0000                     MOVE.w    $00(A3,D0),D1
004610  4ef3 1000                     JMP       $00(A3,D1)
        op_dde5:                      ; push ix
004614  152d 0018                     MOVE.b    ($0018,a5),-(A2)
004618  152d 0019                     MOVE.b    ($0019,a5),-(A2)
00461c  4240                          CLR.w     D0
00461e  1019                          MOVE.b    (A1)+,D0
004620  d040                          ADD.w     D0,D0
004622  3233 0000                     MOVE.w    $00(A3,D0),D1
004626  4ef3 1000                     JMP       $00(A3,D1)
        op_dde9:                      ; jp (ix)
00462a  322d 0018                     MOVE.w    ($0018,a5),D1
00462e  43f6 1800                     LEA       $00(A6,D1.l),A1
004632  4240                          CLR.w     D0
004634  1019                          MOVE.b    (A1)+,D0
004636  d040                          ADD.w     D0,D0
004638  3233 0000                     MOVE.w    $00(A3,D0),D1
00463c  4ef3 1000                     JMP       $00(A3,D1)
        op_ddf9:                      ; ld sp,ix
004640  322d 0018                     MOVE.w    ($0018,a5),D1
004644  45f6 1800                     LEA       $00(A6,D1.l),A2
004648  4240                          CLR.w     D0
00464a  1019                          MOVE.b    (A1)+,D0
00464c  d040                          ADD.w     D0,D0
00464e  3233 0000                     MOVE.w    $00(A3,D0),D1
004652  4ef3 1000                     JMP       $00(A3,D1)
        table_opfd:
004656  ffff                          op_undefined - dc.w  table_opfd
004658  ffff                          op_undefined - dc.w  table_opfd
00465a  ffff                          op_undefined - dc.w  table_opfd
00465c  ffff                          op_undefined - dc.w  table_opfd
00465e  ffff                          op_undefined - dc.w  table_opfd
004660  ffff                          op_undefined - dc.w  table_opfd
004662  ffff                          op_undefined - dc.w  table_opfd
004664  ffff                          op_undefined - dc.w  table_opfd
004666  ffff                          op_undefined - dc.w  table_opfd
004668  0200                          op_fd09 - dc.w  table_opfd
00466a  ffff                          op_undefined - dc.w  table_opfd
00466c  ffff                          op_undefined - dc.w  table_opfd
00466e  ffff                          op_undefined - dc.w  table_opfd
004670  ffff                          op_undefined - dc.w  table_opfd
004672  ffff                          op_undefined - dc.w  table_opfd
004674  ffff                          op_undefined - dc.w  table_opfd
004676  ffff                          op_undefined - dc.w  table_opfd
004678  ffff                          op_undefined - dc.w  table_opfd
00467a  ffff                          op_undefined - dc.w  table_opfd
00467c  ffff                          op_undefined - dc.w  table_opfd
00467e  ffff                          op_undefined - dc.w  table_opfd
004680  ffff                          op_undefined - dc.w  table_opfd
004682  ffff                          op_undefined - dc.w  table_opfd
004684  ffff                          op_undefined - dc.w  table_opfd
004686  ffff                          op_undefined - dc.w  table_opfd
004688  0216                          op_fd19 - dc.w  table_opfd
00468a  ffff                          op_undefined - dc.w  table_opfd
00468c  ffff                          op_undefined - dc.w  table_opfd
00468e  ffff                          op_undefined - dc.w  table_opfd
004690  ffff                          op_undefined - dc.w  table_opfd
004692  ffff                          op_undefined - dc.w  table_opfd
004694  ffff                          op_undefined - dc.w  table_opfd
004696  ffff                          op_undefined - dc.w  table_opfd
004698  022c                          op_fd21 - dc.w  table_opfd
00469a  0240                          op_fd22 - dc.w  table_opfd
00469c  0260                          op_fd23 - dc.w  table_opfd
00469e  ffff                          op_undefined - dc.w  table_opfd
0046a0  ffff                          op_undefined - dc.w  table_opfd
0046a2  ffff                          op_undefined - dc.w  table_opfd
0046a4  ffff                          op_undefined - dc.w  table_opfd
0046a6  ffff                          op_undefined - dc.w  table_opfd
0046a8  0270                          op_fd29 - dc.w  table_opfd
0046aa  0282                          op_fd2a - dc.w  table_opfd
0046ac  02a2                          op_fd2b - dc.w  table_opfd
0046ae  ffff                          op_undefined - dc.w  table_opfd
0046b0  ffff                          op_undefined - dc.w  table_opfd
0046b2  ffff                          op_undefined - dc.w  table_opfd
0046b4  ffff                          op_undefined - dc.w  table_opfd
0046b6  ffff                          op_undefined - dc.w  table_opfd
0046b8  ffff                          op_undefined - dc.w  table_opfd
0046ba  ffff                          op_undefined - dc.w  table_opfd
0046bc  ffff                          op_undefined - dc.w  table_opfd
0046be  02b2                          op_fd34 - dc.w  table_opfd
0046c0  02de                          op_fd35 - dc.w  table_opfd
0046c2  030a                          op_fd36 - dc.w  table_opfd
0046c4  ffff                          op_undefined - dc.w  table_opfd
0046c6  ffff                          op_undefined - dc.w  table_opfd
0046c8  0322                          op_fd39 - dc.w  table_opfd
0046ca  ffff                          op_undefined - dc.w  table_opfd
0046cc  ffff                          op_undefined - dc.w  table_opfd
0046ce  ffff                          op_undefined - dc.w  table_opfd
0046d0  ffff                          op_undefined - dc.w  table_opfd
0046d2  ffff                          op_undefined - dc.w  table_opfd
0046d4  ffff                          op_undefined - dc.w  table_opfd
0046d6  ffff                          op_undefined - dc.w  table_opfd
0046d8  ffff                          op_undefined - dc.w  table_opfd
0046da  ffff                          op_undefined - dc.w  table_opfd
0046dc  ffff                          op_undefined - dc.w  table_opfd
0046de  ffff                          op_undefined - dc.w  table_opfd
0046e0  ffff                          op_undefined - dc.w  table_opfd
0046e2  0338                          op_fd46 - dc.w  table_opfd
0046e4  ffff                          op_undefined - dc.w  table_opfd
0046e6  ffff                          op_undefined - dc.w  table_opfd
0046e8  ffff                          op_undefined - dc.w  table_opfd
0046ea  ffff                          op_undefined - dc.w  table_opfd
0046ec  ffff                          op_undefined - dc.w  table_opfd
0046ee  ffff                          op_undefined - dc.w  table_opfd
0046f0  ffff                          op_undefined - dc.w  table_opfd
0046f2  0352                          op_fd4e - dc.w  table_opfd
0046f4  ffff                          op_undefined - dc.w  table_opfd
0046f6  ffff                          op_undefined - dc.w  table_opfd
0046f8  ffff                          op_undefined - dc.w  table_opfd
0046fa  ffff                          op_undefined - dc.w  table_opfd
0046fc  ffff                          op_undefined - dc.w  table_opfd
0046fe  ffff                          op_undefined - dc.w  table_opfd
004700  ffff                          op_undefined - dc.w  table_opfd
004702  036c                          op_fd56 - dc.w  table_opfd
004704  ffff                          op_undefined - dc.w  table_opfd
004706  ffff                          op_undefined - dc.w  table_opfd
004708  ffff                          op_undefined - dc.w  table_opfd
00470a  ffff                          op_undefined - dc.w  table_opfd
00470c  ffff                          op_undefined - dc.w  table_opfd
00470e  ffff                          op_undefined - dc.w  table_opfd
004710  ffff                          op_undefined - dc.w  table_opfd
004712  0386                          op_fd5e - dc.w  table_opfd
004714  ffff                          op_undefined - dc.w  table_opfd
004716  ffff                          op_undefined - dc.w  table_opfd
004718  ffff                          op_undefined - dc.w  table_opfd
00471a  ffff                          op_undefined - dc.w  table_opfd
00471c  ffff                          op_undefined - dc.w  table_opfd
00471e  ffff                          op_undefined - dc.w  table_opfd
004720  ffff                          op_undefined - dc.w  table_opfd
004722  03a0                          op_fd66 - dc.w  table_opfd
004724  ffff                          op_undefined - dc.w  table_opfd
004726  ffff                          op_undefined - dc.w  table_opfd
004728  ffff                          op_undefined - dc.w  table_opfd
00472a  ffff                          op_undefined - dc.w  table_opfd
00472c  ffff                          op_undefined - dc.w  table_opfd
00472e  ffff                          op_undefined - dc.w  table_opfd
004730  ffff                          op_undefined - dc.w  table_opfd
004732  03b8                          op_fd6e - dc.w  table_opfd
004734  ffff                          op_undefined - dc.w  table_opfd
004736  03d2                          op_fd70 - dc.w  table_opfd
004738  03ec                          op_fd71 - dc.w  table_opfd
00473a  0406                          op_fd72 - dc.w  table_opfd
00473c  0420                          op_fd73 - dc.w  table_opfd
00473e  043a                          op_fd74 - dc.w  table_opfd
004740  0452                          op_fd75 - dc.w  table_opfd
004742  ffff                          op_undefined - dc.w  table_opfd
004744  046c                          op_fd77 - dc.w  table_opfd
004746  ffff                          op_undefined - dc.w  table_opfd
004748  ffff                          op_undefined - dc.w  table_opfd
00474a  ffff                          op_undefined - dc.w  table_opfd
00474c  ffff                          op_undefined - dc.w  table_opfd
00474e  ffff                          op_undefined - dc.w  table_opfd
004750  ffff                          op_undefined - dc.w  table_opfd
004752  0484                          op_fd7e - dc.w  table_opfd
004754  ffff                          op_undefined - dc.w  table_opfd
004756  ffff                          op_undefined - dc.w  table_opfd
004758  ffff                          op_undefined - dc.w  table_opfd
00475a  ffff                          op_undefined - dc.w  table_opfd
00475c  ffff                          op_undefined - dc.w  table_opfd
00475e  ffff                          op_undefined - dc.w  table_opfd
004760  ffff                          op_undefined - dc.w  table_opfd
004762  049e                          op_fd86 - dc.w  table_opfd
004764  ffff                          op_undefined - dc.w  table_opfd
004766  ffff                          op_undefined - dc.w  table_opfd
004768  ffff                          op_undefined - dc.w  table_opfd
00476a  ffff                          op_undefined - dc.w  table_opfd
00476c  ffff                          op_undefined - dc.w  table_opfd
00476e  ffff                          op_undefined - dc.w  table_opfd
004770  ffff                          op_undefined - dc.w  table_opfd
004772  04d4                          op_fd8e - dc.w  table_opfd
004774  ffff                          op_undefined - dc.w  table_opfd
004776  ffff                          op_undefined - dc.w  table_opfd
004778  ffff                          op_undefined - dc.w  table_opfd
00477a  ffff                          op_undefined - dc.w  table_opfd
00477c  ffff                          op_undefined - dc.w  table_opfd
00477e  ffff                          op_undefined - dc.w  table_opfd
004780  ffff                          op_undefined - dc.w  table_opfd
004782  0512                          op_fd96 - dc.w  table_opfd
004784  ffff                          op_undefined - dc.w  table_opfd
004786  ffff                          op_undefined - dc.w  table_opfd
004788  ffff                          op_undefined - dc.w  table_opfd
00478a  ffff                          op_undefined - dc.w  table_opfd
00478c  ffff                          op_undefined - dc.w  table_opfd
00478e  ffff                          op_undefined - dc.w  table_opfd
004790  ffff                          op_undefined - dc.w  table_opfd
004792  0548                          op_fd9e - dc.w  table_opfd
004794  ffff                          op_undefined - dc.w  table_opfd
004796  ffff                          op_undefined - dc.w  table_opfd
004798  ffff                          op_undefined - dc.w  table_opfd
00479a  ffff                          op_undefined - dc.w  table_opfd
00479c  ffff                          op_undefined - dc.w  table_opfd
00479e  ffff                          op_undefined - dc.w  table_opfd
0047a0  ffff                          op_undefined - dc.w  table_opfd
0047a2  0586                          op_fda6 - dc.w  table_opfd
0047a4  ffff                          op_undefined - dc.w  table_opfd
0047a6  ffff                          op_undefined - dc.w  table_opfd
0047a8  ffff                          op_undefined - dc.w  table_opfd
0047aa  ffff                          op_undefined - dc.w  table_opfd
0047ac  ffff                          op_undefined - dc.w  table_opfd
0047ae  ffff                          op_undefined - dc.w  table_opfd
0047b0  ffff                          op_undefined - dc.w  table_opfd
0047b2  05a6                          op_fdae - dc.w  table_opfd
0047b4  ffff                          op_undefined - dc.w  table_opfd
0047b6  ffff                          op_undefined - dc.w  table_opfd
0047b8  ffff                          op_undefined - dc.w  table_opfd
0047ba  ffff                          op_undefined - dc.w  table_opfd
0047bc  ffff                          op_undefined - dc.w  table_opfd
0047be  ffff                          op_undefined - dc.w  table_opfd
0047c0  ffff                          op_undefined - dc.w  table_opfd
0047c2  05c8                          op_fdb6 - dc.w  table_opfd
0047c4  ffff                          op_undefined - dc.w  table_opfd
0047c6  ffff                          op_undefined - dc.w  table_opfd
0047c8  ffff                          op_undefined - dc.w  table_opfd
0047ca  ffff                          op_undefined - dc.w  table_opfd
0047cc  ffff                          op_undefined - dc.w  table_opfd
0047ce  ffff                          op_undefined - dc.w  table_opfd
0047d0  ffff                          op_undefined - dc.w  table_opfd
0047d2  05e8                          op_fdbe - dc.w  table_opfd
0047d4  ffff                          op_undefined - dc.w  table_opfd
0047d6  ffff                          op_undefined - dc.w  table_opfd
0047d8  ffff                          op_undefined - dc.w  table_opfd
0047da  ffff                          op_undefined - dc.w  table_opfd
0047dc  ffff                          op_undefined - dc.w  table_opfd
0047de  ffff                          op_undefined - dc.w  table_opfd
0047e0  ffff                          op_undefined - dc.w  table_opfd
0047e2  ffff                          op_undefined - dc.w  table_opfd
0047e4  ffff                          op_undefined - dc.w  table_opfd
0047e6  ffff                          op_undefined - dc.w  table_opfd
0047e8  ffff                          op_undefined - dc.w  table_opfd
0047ea  ffff                          op_undefined - dc.w  table_opfd
0047ec  060a                          op_fdcb - dc.w  table_opfd
0047ee  ffff                          op_undefined - dc.w  table_opfd
0047f0  ffff                          op_undefined - dc.w  table_opfd
0047f2  ffff                          op_undefined - dc.w  table_opfd
0047f4  ffff                          op_undefined - dc.w  table_opfd
0047f6  ffff                          op_undefined - dc.w  table_opfd
0047f8  ffff                          op_undefined - dc.w  table_opfd
0047fa  ffff                          op_undefined - dc.w  table_opfd
0047fc  ffff                          op_undefined - dc.w  table_opfd
0047fe  ffff                          op_undefined - dc.w  table_opfd
004800  ffff                          op_undefined - dc.w  table_opfd
004802  ffff                          op_undefined - dc.w  table_opfd
004804  ffff                          op_undefined - dc.w  table_opfd
004806  ffff                          op_undefined - dc.w  table_opfd
004808  ffff                          op_undefined - dc.w  table_opfd
00480a  ffff                          op_undefined - dc.w  table_opfd
00480c  ffff                          op_undefined - dc.w  table_opfd
00480e  ffff                          op_undefined - dc.w  table_opfd
004810  ffff                          op_undefined - dc.w  table_opfd
004812  ffff                          op_undefined - dc.w  table_opfd
004814  ffff                          op_undefined - dc.w  table_opfd
004816  ffff                          op_undefined - dc.w  table_opfd
004818  0624                          op_fde1 - dc.w  table_opfd
00481a  ffff                          op_undefined - dc.w  table_opfd
00481c  063a                          op_fde3 - dc.w  table_opfd
00481e  ffff                          op_undefined - dc.w  table_opfd
004820  065c                          op_fde5 - dc.w  table_opfd
004822  ffff                          op_undefined - dc.w  table_opfd
004824  ffff                          op_undefined - dc.w  table_opfd
004826  ffff                          op_undefined - dc.w  table_opfd
004828  0672                          op_fde9 - dc.w  table_opfd
00482a  ffff                          op_undefined - dc.w  table_opfd
00482c  ffff                          op_undefined - dc.w  table_opfd
00482e  ffff                          op_undefined - dc.w  table_opfd
004830  ffff                          op_undefined - dc.w  table_opfd
004832  ffff                          op_undefined - dc.w  table_opfd
004834  ffff                          op_undefined - dc.w  table_opfd
004836  ffff                          op_undefined - dc.w  table_opfd
004838  ffff                          op_undefined - dc.w  table_opfd
00483a  ffff                          op_undefined - dc.w  table_opfd
00483c  ffff                          op_undefined - dc.w  table_opfd
00483e  ffff                          op_undefined - dc.w  table_opfd
004840  ffff                          op_undefined - dc.w  table_opfd
004842  ffff                          op_undefined - dc.w  table_opfd
004844  ffff                          op_undefined - dc.w  table_opfd
004846  ffff                          op_undefined - dc.w  table_opfd
004848  0688                          op_fdf9 - dc.w  table_opfd
00484a  ffff                          op_undefined - dc.w  table_opfd
00484c  ffff                          op_undefined - dc.w  table_opfd
00484e  ffff                          op_undefined - dc.w  table_opfd
004850  ffff                          op_undefined - dc.w  table_opfd
004852  ffff                          op_undefined - dc.w  table_opfd
004854  ffff                          op_undefined - dc.w  table_opfd
        op_fd09:                      ; add iy,bc
004856  322d 0004                     MOVE.w    ($0004,a5),D1
00485a  d36d 001a                     ADD.w     D1,$001a(A5)
00485e  55c6                          SCS       D6
004860  1019                          MOVE.b    (A1)+,D0
004862  d040                          ADD.w     D0,D0
004864  3233 0000                     MOVE.w    $00(A3,D0),D1
004868  4ef3 1000                     JMP       $00(A3,D1)
        op_fd19:                      ; add iy,de
00486c  322d 0002                     MOVE.w    ($0002,a5),D1
004870  d36d 001a                     ADD.w     D1,$001a(A5)
004874  55c6                          SCS       D6
004876  1019                          MOVE.b    (A1)+,D0
004878  d040                          ADD.w     D0,D0
00487a  3233 0000                     MOVE.w    $00(A3,D0),D1
00487e  4ef3 1000                     JMP       $00(A3,D1)
        op_fd21:                      ; ld iy,nn
004882  1b59 001b                     MOVE.b    (A1)+,$001b(A5)
004886  1b59 001a                     MOVE.b    (A1)+,$001a(A5)
00488a  1019                          MOVE.b    (A1)+,D0
00488c  d040                          ADD.w     D0,D0
00488e  3233 0000                     MOVE.w    $00(A3,D0),D1
004892  4ef3 1000                     JMP       $00(A3,D1)
        op_fd22:                      ; ld (nn),iy
004896  1019                          MOVE.b    (A1)+,D0
004898  1219                          MOVE.b    (A1)+,D1
00489a  e059                          ROR.w     #8,D1
00489c  1200                          MOVE.b    D0,D1
00489e  1dad 001b 1800                MOVE.b    ($001b,a5),$00(A6,D1.l)
0048a4  1dad 001a 1801                MOVE.b    ($001a,a5),$01(A6,D1.l)
0048aa  1019                          MOVE.b    (A1)+,D0
0048ac  d040                          ADD.w     D0,D0
0048ae  3233 0000                     MOVE.w    $00(A3,D0),D1
0048b2  4ef3 1000                     JMP       $00(A3,D1)
        op_fd23:                      ; inc iy
0048b6  526d 001a                     ADDQ.w    #1,$001a(A5)
0048ba  1019                          MOVE.b    (A1)+,D0
0048bc  d040                          ADD.w     D0,D0
0048be  3233 0000                     MOVE.w    $00(A3,D0),D1
0048c2  4ef3 1000                     JMP       $00(A3,D1)
        op_fd29:                      ; add iy,iy
0048c6  e3ed 001a                     LSL       $001a(A5)
0048ca  55c6                          SCS       D6
0048cc  1019                          MOVE.b    (A1)+,D0
0048ce  d040                          ADD.w     D0,D0
0048d0  3233 0000                     MOVE.w    $00(A3,D0),D1
0048d4  4ef3 1000                     JMP       $00(A3,D1)
        op_fd2a:                      ; ld iy,(nn)
0048d8  1019                          MOVE.b    (A1)+,D0
0048da  1219                          MOVE.b    (A1)+,D1
0048dc  e059                          ROR.w     #8,D1
0048de  1200                          MOVE.b    D0,D1
0048e0  1b76 1800 001b                MOVE.b    $1b(A6,D0),$001b(A5)
0048e6  1b76 1801 001a                MOVE.b    $1a(A6,D0),$001a(A5)
0048ec  1019                          MOVE.b    (A1)+,D0
0048ee  d040                          ADD.w     D0,D0
0048f0  3233 0000                     MOVE.w    $00(A3,D0),D1
0048f4  4ef3 1000                     JMP       $00(A3,D1)
        op_fd2b:                      ; dec iy
0048f8  536d 001a                     SUBQ.w    #1,$001a(A5)
0048fc  1019                          MOVE.b    (A1)+,D0
0048fe  d040                          ADD.w     D0,D0
004900  3233 0000                     MOVE.w    $00(A3,D0),D1
004904  4ef3 1000                     JMP       $00(A3,D1)
        op_fd34:                      ; inc (iy+d)
004908  1219                          MOVE.b    (A1)+,D1
00490a  4881                          EXT.w     D1
00490c  d26d 001a                     ADD.w     $001a(A5),D1
004910  5236 1800                     ADDQ.b    #1,$00(A6,D1.l)
004914  59c5                          SVS       D5
004916  57c3                          SEQ       D3
004918  5bc2                          SMI       D2
00491a  1236 1800                     MOVE.b    $00(A6,D1.l),D1
00491e  c23c 000f                     AND.b     #$000f,D1
004922  57c4                          SEQ       D4
004924  cc7c 7fff                     AND.w     #$7fff,D6
004928  1019                          MOVE.b    (A1)+,D0
00492a  d040                          ADD.w     D0,D0
00492c  3233 0000                     MOVE.w    $00(A3,D0),D1
004930  4ef3 1000                     JMP       $00(A3,D1)
        op_fd35:                      ; dec (iy+d)
004934  1219                          MOVE.b    (A1)+,D1
004936  4881                          EXT.w     D1
004938  d26d 001a                     ADD.w     $001a(A5),D1
00493c  1036 1800                     MOVE.b    $00(A6,D1.l),D0
004940  c03c 000f                     AND.b     #$000f,D0
004944  57c4                          SEQ       D4
004946  5336 1800                     SUBQ.b    #1,$00(A6,D1.l)
00494a  59c5                          SVS       D5
00494c  57c3                          SEQ       D3
00494e  5bc2                          SMI       D2
004950  8c7c 8000                     OR.w      #$8000,D6
004954  1019                          MOVE.b    (A1)+,D0
004956  d040                          ADD.w     D0,D0
004958  3233 0000                     MOVE.w    $00(A3,D0),D1
00495c  4ef3 1000                     JMP       $00(A3,D1)
        op_fd36:                      ; ld (iy+d),n
004960  1219                          MOVE.b    (A1)+,D1
004962  4881                          EXT.w     D1
004964  d26d 001a                     ADD.w     $001a(A5),D1
004968  1d99 1800                     MOVE.b    (A1)+,$00(A6,D1.l)
00496c  1019                          MOVE.b    (A1)+,D0
00496e  d040                          ADD.w     D0,D0
004970  3233 0000                     MOVE.w    $00(A3,D0),D1
004974  4ef3 1000                     JMP       $00(A3,D1)
        op_fd39:                      ; add iy,sp
004978  220a                          MOVE.l    A2,D1
00497a  928e                          SUB.l     A6,D1
00497c  d36d 001a                     ADD.w     D1,$001a(A5)
004980  55c6                          SCS       D6
004982  1019                          MOVE.b    (A1)+,D0
004984  d040                          ADD.w     D0,D0
004986  3233 0000                     MOVE.w    $00(A3,D0),D1
00498a  4ef3 1000                     JMP       $00(A3,D1)
        op_fd46:                      ; ld b,(iy+d)
00498e  1219                          MOVE.b    (A1)+,D1
004990  4881                          EXT.w     D1
004992  d26d 001a                     ADD.w     $001a(A5),D1
004996  1b76 1800 0004                MOVE.b    $04(A6,D0),$0004(A5)
00499c  1019                          MOVE.b    (A1)+,D0
00499e  d040                          ADD.w     D0,D0
0049a0  3233 0000                     MOVE.w    $00(A3,D0),D1
0049a4  4ef3 1000                     JMP       $00(A3,D1)
        op_fd4e:                      ; ld c,(iy+d)
0049a8  1219                          MOVE.b    (A1)+,D1
0049aa  4881                          EXT.w     D1
0049ac  d26d 001a                     ADD.w     $001a(A5),D1
0049b0  1b76 1800 0005                MOVE.b    $05(A6,D0),$0005(A5)
0049b6  1019                          MOVE.b    (A1)+,D0
0049b8  d040                          ADD.w     D0,D0
0049ba  3233 0000                     MOVE.w    $00(A3,D0),D1
0049be  4ef3 1000                     JMP       $00(A3,D1)
        op_fd56:                      ; ld d,(iy+d)
0049c2  1219                          MOVE.b    (A1)+,D1
0049c4  4881                          EXT.w     D1
0049c6  d26d 001a                     ADD.w     $001a(A5),D1
0049ca  1b76 1800 0002                MOVE.b    $02(A6,D0),$0002(A5)
0049d0  1019                          MOVE.b    (A1)+,D0
0049d2  d040                          ADD.w     D0,D0
0049d4  3233 0000                     MOVE.w    $00(A3,D0),D1
0049d8  4ef3 1000                     JMP       $00(A3,D1)
        op_fd5e:                      ; ld e,(iy+d)
0049dc  1219                          MOVE.b    (A1)+,D1
0049de  4881                          EXT.w     D1
0049e0  d26d 001a                     ADD.w     $001a(A5),D1
0049e4  1b76 1800 0003                MOVE.b    $03(A6,D0),$0003(A5)
0049ea  1019                          MOVE.b    (A1)+,D0
0049ec  d040                          ADD.w     D0,D0
0049ee  3233 0000                     MOVE.w    $00(A3,D0),D1
0049f2  4ef3 1000                     JMP       $00(A3,D1)
        op_fd66:                      ; ld h,(iy+d)
0049f6  1219                          MOVE.b    (A1)+,D1
0049f8  4881                          EXT.w     D1
0049fa  d26d 001a                     ADD.w     $001a(A5),D1
0049fe  1ab6 1800                     MOVE.b    $00(A6,D1.l),(A5)
004a02  1019                          MOVE.b    (A1)+,D0
004a04  d040                          ADD.w     D0,D0
004a06  3233 0000                     MOVE.w    $00(A3,D0),D1
004a0a  4ef3 1000                     JMP       $00(A3,D1)
        op_fd6e:                      ; ld l,(iy+d)
004a0e  1219                          MOVE.b    (A1)+,D1
004a10  4881                          EXT.w     D1
004a12  d26d 001a                     ADD.w     $001a(A5),D1
004a16  1b76 1800 0001                MOVE.b    $01(A6,D0),$0001(A5)
004a1c  1019                          MOVE.b    (A1)+,D0
004a1e  d040                          ADD.w     D0,D0
004a20  3233 0000                     MOVE.w    $00(A3,D0),D1
004a24  4ef3 1000                     JMP       $00(A3,D1)
        op_fd70:                      ; ld (iy+d),b
004a28  1219                          MOVE.b    (A1)+,D1
004a2a  4881                          EXT.w     D1
004a2c  d26d 001a                     ADD.w     $001a(A5),D1
004a30  1dad 0004 1800                MOVE.b    ($0004,a5),$00(A6,D1.l)
004a36  1019                          MOVE.b    (A1)+,D0
004a38  d040                          ADD.w     D0,D0
004a3a  3233 0000                     MOVE.w    $00(A3,D0),D1
004a3e  4ef3 1000                     JMP       $00(A3,D1)
        op_fd71:                      ; ld (iy+d),c
004a42  1219                          MOVE.b    (A1)+,D1
004a44  4881                          EXT.w     D1
004a46  d26d 001a                     ADD.w     $001a(A5),D1
004a4a  1dad 0005 1800                MOVE.b    ($0005,a5),$00(A6,D1.l)
004a50  1019                          MOVE.b    (A1)+,D0
004a52  d040                          ADD.w     D0,D0
004a54  3233 0000                     MOVE.w    $00(A3,D0),D1
004a58  4ef3 1000                     JMP       $00(A3,D1)
        op_fd72:                      ; ld (iy+d),d
004a5c  1219                          MOVE.b    (A1)+,D1
004a5e  4881                          EXT.w     D1
004a60  d26d 001a                     ADD.w     $001a(A5),D1
004a64  1dad 0002 1800                MOVE.b    ($0002,a5),$00(A6,D1.l)
004a6a  1019                          MOVE.b    (A1)+,D0
004a6c  d040                          ADD.w     D0,D0
004a6e  3233 0000                     MOVE.w    $00(A3,D0),D1
004a72  4ef3 1000                     JMP       $00(A3,D1)
        op_fd73:                      ; ld (iy+d),e
004a76  1219                          MOVE.b    (A1)+,D1
004a78  4881                          EXT.w     D1
004a7a  d26d 001a                     ADD.w     $001a(A5),D1
004a7e  1dad 0003 1800                MOVE.b    ($0003,a5),$00(A6,D1.l)
004a84  1019                          MOVE.b    (A1)+,D0
004a86  d040                          ADD.w     D0,D0
004a88  3233 0000                     MOVE.w    $00(A3,D0),D1
004a8c  4ef3 1000                     JMP       $00(A3,D1)
        op_fd74:                      ; ld (iy+d),h
004a90  1219                          MOVE.b    (A1)+,D1
004a92  4881                          EXT.w     D1
004a94  d26d 001a                     ADD.w     $001a(A5),D1
004a98  1d95 1800                     MOVE.b    (A5),$00(A6,D1.l)
004a9c  1019                          MOVE.b    (A1)+,D0
004a9e  d040                          ADD.w     D0,D0
004aa0  3233 0000                     MOVE.w    $00(A3,D0),D1
004aa4  4ef3 1000                     JMP       $00(A3,D1)
        op_fd75:                      ; ld (iy+d),l
004aa8  1219                          MOVE.b    (A1)+,D1
004aaa  4881                          EXT.w     D1
004aac  d26d 001a                     ADD.w     $001a(A5),D1
004ab0  1dad 0001 1800                MOVE.b    ($0001,a5),$00(A6,D1.l)
004ab6  1019                          MOVE.b    (A1)+,D0
004ab8  d040                          ADD.w     D0,D0
004aba  3233 0000                     MOVE.w    $00(A3,D0),D1
004abe  4ef3 1000                     JMP       $00(A3,D1)
        op_fd77:                      ; ld (iy+d),a
004ac2  1219                          MOVE.b    (A1)+,D1
004ac4  4881                          EXT.w     D1
004ac6  d26d 001a                     ADD.w     $001a(A5),D1
004aca  1d87 1800                     MOVE.b    D7,$00(A6,D1.l)
004ace  1019                          MOVE.b    (A1)+,D0
004ad0  d040                          ADD.w     D0,D0
004ad2  3233 0000                     MOVE.w    $00(A3,D0),D1
004ad6  4ef3 1000                     JMP       $00(A3,D1)
        op_fd7e:                      ; ld a,(iy+d)
004ada  1219                          MOVE.b    (A1)+,D1
004adc  4881                          EXT.w     D1
004ade  d26d 001a                     ADD.w     $001a(A5),D1
004ae2  1e36 1800                     MOVE.b    $00(A6,D1.l),D7
004ae6  4240                          CLR.w     D0
004ae8  1019                          MOVE.b    (A1)+,D0
004aea  d040                          ADD.w     D0,D0
004aec  3233 0000                     MOVE.w    $00(A3,D0),D1
004af0  4ef3 1000                     JMP       $00(A3,D1)
        op_fd86:                      ; add a,(iy+d)
004af4  1007                          MOVE.b    D7,D0
004af6  1219                          MOVE.b    (A1)+,D1
004af8  4881                          EXT.w     D1
004afa  d26d 001a                     ADD.w     $001a(A5),D1
004afe  1236 1800                     MOVE.b    $00(A6,D1.l),D1
004b02  de01                          ADD.b     D1,D7
004b04  5bc2                          SMI       D2
004b06  57c3                          SEQ       D3
004b08  59c5                          SVS       D5
004b0a  55c6                          SCS       D6
004b0c  803c 00f0                     OR.b      #$00f0,D0
004b10  c23c 000f                     AND.b     #$000f,D1
004b14  d001                          ADD.b     D1,D0
004b16  55c4                          SCS       D4
004b18  cc7c 7fff                     AND.w     #$7fff,D6
004b1c  4240                          CLR.w     D0
004b1e  1019                          MOVE.b    (A1)+,D0
004b20  d040                          ADD.w     D0,D0
004b22  3233 0000                     MOVE.w    $00(A3,D0),D1
004b26  4ef3 1000                     JMP       $00(A3,D1)
        op_fd8e:                      ; adc a,(iy+d)
004b2a  1007                          MOVE.b    D7,D0
004b2c  1219                          MOVE.b    (A1)+,D1
004b2e  4881                          EXT.w     D1
004b30  d26d 001a                     ADD.w     $001a(A5),D1
004b34  1236 1800                     MOVE.b    $00(A6,D1.l),D1
004b38  1806                          MOVE.b    D6,D4
004b3a  44c4                          MOVE      D4,ccr
004b3c  df01                          ADDX.b    D1,D7
004b3e  5bc2                          SMI       D2
004b40  59c5                          SVS       D5
004b42  55c6                          SCS       D6
004b44  4a07                          TST.b     D7
004b46  57c3                          SEQ       D3
004b48  803c 00f0                     OR.b      #$00f0,D0
004b4c  c23c 000f                     AND.b     #$000f,D1
004b50  44c4                          MOVE      D4,ccr
004b52  d101                          ADDX.b    D1,D0
004b54  55c4                          SCS       D4
004b56  cc7c 7fff                     AND.w     #$7fff,D6
004b5a  4240                          CLR.w     D0
004b5c  1019                          MOVE.b    (A1)+,D0
004b5e  d040                          ADD.w     D0,D0
004b60  3233 0000                     MOVE.w    $00(A3,D0),D1
004b64  4ef3 1000                     JMP       $00(A3,D1)
        op_fd96:                      ; sub (iy+d)
004b68  1007                          MOVE.b    D7,D0
004b6a  1219                          MOVE.b    (A1)+,D1
004b6c  4881                          EXT.w     D1
004b6e  d26d 001a                     ADD.w     $001a(A5),D1
004b72  1236 1800                     MOVE.b    $00(A6,D1.l),D1
004b76  9e01                          SUB.b     D1,D7
004b78  5bc2                          SMI       D2
004b7a  57c3                          SEQ       D3
004b7c  59c5                          SVS       D5
004b7e  55c6                          SCS       D6
004b80  c03c 000f                     AND.b     #$000f,D0
004b84  c23c 000f                     AND.b     #$000f,D1
004b88  9001                          SUB.b     D1,D0
004b8a  55c4                          SCS       D4
004b8c  8c7c 8000                     OR.w      #$8000,D6
004b90  4240                          CLR.w     D0
004b92  1019                          MOVE.b    (A1)+,D0
004b94  d040                          ADD.w     D0,D0
004b96  3233 0000                     MOVE.w    $00(A3,D0),D1
004b9a  4ef3 1000                     JMP       $00(A3,D1)
        op_fd9e:                      ; sbc a,(iy+d)
004b9e  1007                          MOVE.b    D7,D0
004ba0  1219                          MOVE.b    (A1)+,D1
004ba2  4881                          EXT.w     D1
004ba4  d26d 001a                     ADD.w     $001a(A5),D1
004ba8  1236 1800                     MOVE.b    $00(A6,D1.l),D1
004bac  1806                          MOVE.b    D6,D4
004bae  44c4                          MOVE      D4,ccr
004bb0  9f01                          SUBX.b    D1,D7
004bb2  5bc2                          SMI       D2
004bb4  59c5                          SVS       D5
004bb6  55c6                          SCS       D6
004bb8  4a07                          TST.b     D7
004bba  57c3                          SEQ       D3
004bbc  c03c 000f                     AND.b     #$000f,D0
004bc0  c23c 000f                     AND.b     #$000f,D1
004bc4  44c4                          MOVE      D4,ccr
004bc6  9101                          SUBX.b    D1,D0
004bc8  55c4                          SCS       D4
004bca  8c7c 8000                     OR.w      #$8000,D6
004bce  4240                          CLR.w     D0
004bd0  1019                          MOVE.b    (A1)+,D0
004bd2  d040                          ADD.w     D0,D0
004bd4  3233 0000                     MOVE.w    $00(A3,D0),D1
004bd8  4ef3 1000                     JMP       $00(A3,D1)
        op_fda6:                      ; and (iy+d)
004bdc  1219                          MOVE.b    (A1)+,D1
004bde  4881                          EXT.w     D1
004be0  d26d 001a                     ADD.w     $001a(A5),D1
004be4  ce36 1800                     AND.b     $00(A6,D1.l),D7
004be8  5bc2                          SMI       D2
004bea  57c3                          SEQ       D3
004bec  51c6                          SF        D6
004bee  4240                          CLR.w     D0
004bf0  1019                          MOVE.b    (A1)+,D0
004bf2  d040                          ADD.w     D0,D0
004bf4  3233 0000                     MOVE.w    $00(A3,D0),D1
004bf8  4ef3 1000                     JMP       $00(A3,D1)
        op_fdae:                      ; xor (iy+d)
004bfc  1219                          MOVE.b    (A1)+,D1
004bfe  4881                          EXT.w     D1
004c00  d26d 001a                     ADD.w     $001a(A5),D1
004c04  1036 1800                     MOVE.b    $00(A6,D1.l),D0
004c08  b107                          EOR.b     D0,D7
004c0a  5bc2                          SMI       D2
004c0c  57c3                          SEQ       D3
004c0e  51c6                          SF        D6
004c10  4240                          CLR.w     D0
004c12  1019                          MOVE.b    (A1)+,D0
004c14  d040                          ADD.w     D0,D0
004c16  3233 0000                     MOVE.w    $00(A3,D0),D1
004c1a  4ef3 1000                     JMP       $00(A3,D1)
        op_fdb6:                      ; or (iy+d)
004c1e  1219                          MOVE.b    (A1)+,D1
004c20  4881                          EXT.w     D1
004c22  d26d 001a                     ADD.w     $001a(A5),D1
004c26  8e36 1800                     OR.b      $00(A6,D1.l),D7
004c2a  5bc2                          SMI       D2
004c2c  57c3                          SEQ       D3
004c2e  51c6                          SF        D6
004c30  4240                          CLR.w     D0
004c32  1019                          MOVE.b    (A1)+,D0
004c34  d040                          ADD.w     D0,D0
004c36  3233 0000                     MOVE.w    $00(A3,D0),D1
004c3a  4ef3 1000                     JMP       $00(A3,D1)
        op_fdbe:                      ; cp (iy+d)
004c3e  1219                          MOVE.b    (A1)+,D1
004c40  4881                          EXT.w     D1
004c42  d26d 001a                     ADD.w     $001a(A5),D1
004c46  be36 1800                     CMP.b     $00(A6,D1.l),D7
004c4a  5bc2                          SMI       D2
004c4c  57c3                          SEQ       D3
004c4e  59c5                          SVS       D5
004c50  55c6                          SCS       D6
004c52  4240                          CLR.w     D0
004c54  1019                          MOVE.b    (A1)+,D0
004c56  d040                          ADD.w     D0,D0
004c58  3233 0000                     MOVE.w    $00(A3,D0),D1
004c5c  4ef3 1000                     JMP       $00(A3,D1)
        op_fdcb:                      ; redirect -->
004c60  1219                          MOVE.b    (A1)+,D1
004c62  4881                          EXT.w     D1
004c64  d26d 001a                     ADD.w     $001a(A5),D1
004c68  206d 002c                     MOVEA.l   $002c(A5),A0
004c6c  4240                          CLR.w     D0
004c6e  1019                          MOVE.b    (A1)+,D0
004c70  d040                          ADD.w     D0,D0
004c72  3030 0000                     MOVE.w    $00(A0,D0),D0
004c76  4ef0 0000                     JMP       $00(A0,D0)
        op_fde1:                      ; pop iy
004c7a  1b5a 001b                     MOVE.b    (A2)+,$001b(A5)
004c7e  1b5a 001a                     MOVE.b    (A2)+,$001a(A5)
004c82  4240                          CLR.w     D0
004c84  1019                          MOVE.b    (A1)+,D0
004c86  d040                          ADD.w     D0,D0
004c88  3233 0000                     MOVE.w    $00(A3,D0),D1
004c8c  4ef3 1000                     JMP       $00(A3,D1)
        op_fde3:                      ; ex (sp),iy
004c90  102d 001a                     MOVE.b    ($001a,a5),D0
004c94  122d 001b                     MOVE.b    ($001b,a5),D1
004c98  1b5a 001b                     MOVE.b    (A2)+,$001b(A5)
004c9c  1b52 001a                     MOVE.b    (A2),$001a(A5)
004ca0  1480                          MOVE.b    D0,(A2)
004ca2  1501                          MOVE.b    D1,-(A2)
004ca4  4240                          CLR.w     D0
004ca6  1019                          MOVE.b    (A1)+,D0
004ca8  d040                          ADD.w     D0,D0
004caa  3233 0000                     MOVE.w    $00(A3,D0),D1
004cae  4ef3 1000                     JMP       $00(A3,D1)
        op_fde5:                      ; push iy
004cb2  152d 001a                     MOVE.b    ($001a,a5),-(A2)
004cb6  152d 001b                     MOVE.b    ($001b,a5),-(A2)
004cba  4240                          CLR.w     D0
004cbc  1019                          MOVE.b    (A1)+,D0
004cbe  d040                          ADD.w     D0,D0
004cc0  3233 0000                     MOVE.w    $00(A3,D0),D1
004cc4  4ef3 1000                     JMP       $00(A3,D1)
        op_fde9:                      ; jp (iy)
004cc8  322d 001a                     MOVE.w    ($001a,a5),D1
004ccc  43f6 1800                     LEA       $00(A6,D1.l),A1
004cd0  4240                          CLR.w     D0
004cd2  1019                          MOVE.b    (A1)+,D0
004cd4  d040                          ADD.w     D0,D0
004cd6  3233 0000                     MOVE.w    $00(A3,D0),D1
004cda  4ef3 1000                     JMP       $00(A3,D1)
        op_fdf9:                      ; ld sp,iy
004cde  322d 001a                     MOVE.w    ($001a,a5),D1
004ce2  45f6 1800                     LEA       $00(A6,D1.l),A2
004ce6  4240                          CLR.w     D0
004ce8  1019                          MOVE.b    (A1)+,D0
004cea  d040                          ADD.w     D0,D0
004cec  3233 0000                     MOVE.w    $00(A3,D0),D1
004cf0  4ef3 1000                     JMP       $00(A3,D1)
        table_opddcb:
004cf4  ffff                          op_undefined - dc.w  table_opddcb
004cf6  ffff                          op_undefined - dc.w  table_opddcb
004cf8  ffff                          op_undefined - dc.w  table_opddcb
004cfa  ffff                          op_undefined - dc.w  table_opddcb
004cfc  ffff                          op_undefined - dc.w  table_opddcb
004cfe  ffff                          op_undefined - dc.w  table_opddcb
004d00  0200                          op_ddcb06 - dc.w  table_opddcb
004d02  ffff                          op_undefined - dc.w  table_opddcb
004d04  ffff                          op_undefined - dc.w  table_opddcb
004d06  ffff                          op_undefined - dc.w  table_opddcb
004d08  ffff                          op_undefined - dc.w  table_opddcb
004d0a  ffff                          op_undefined - dc.w  table_opddcb
004d0c  ffff                          op_undefined - dc.w  table_opddcb
004d0e  ffff                          op_undefined - dc.w  table_opddcb
004d10  021e                          op_ddcb0e - dc.w  table_opddcb
004d12  ffff                          op_undefined - dc.w  table_opddcb
004d14  ffff                          op_undefined - dc.w  table_opddcb
004d16  ffff                          op_undefined - dc.w  table_opddcb
004d18  ffff                          op_undefined - dc.w  table_opddcb
004d1a  ffff                          op_undefined - dc.w  table_opddcb
004d1c  ffff                          op_undefined - dc.w  table_opddcb
004d1e  ffff                          op_undefined - dc.w  table_opddcb
004d20  023c                          op_ddcb16 - dc.w  table_opddcb
004d22  ffff                          op_undefined - dc.w  table_opddcb
004d24  ffff                          op_undefined - dc.w  table_opddcb
004d26  ffff                          op_undefined - dc.w  table_opddcb
004d28  ffff                          op_undefined - dc.w  table_opddcb
004d2a  ffff                          op_undefined - dc.w  table_opddcb
004d2c  ffff                          op_undefined - dc.w  table_opddcb
004d2e  ffff                          op_undefined - dc.w  table_opddcb
004d30  025c                          op_ddcb1e - dc.w  table_opddcb
004d32  ffff                          op_undefined - dc.w  table_opddcb
004d34  ffff                          op_undefined - dc.w  table_opddcb
004d36  ffff                          op_undefined - dc.w  table_opddcb
004d38  ffff                          op_undefined - dc.w  table_opddcb
004d3a  ffff                          op_undefined - dc.w  table_opddcb
004d3c  ffff                          op_undefined - dc.w  table_opddcb
004d3e  ffff                          op_undefined - dc.w  table_opddcb
004d40  027c                          op_ddcb26 - dc.w  table_opddcb
004d42  ffff                          op_undefined - dc.w  table_opddcb
004d44  ffff                          op_undefined - dc.w  table_opddcb
004d46  ffff                          op_undefined - dc.w  table_opddcb
004d48  ffff                          op_undefined - dc.w  table_opddcb
004d4a  ffff                          op_undefined - dc.w  table_opddcb
004d4c  ffff                          op_undefined - dc.w  table_opddcb
004d4e  ffff                          op_undefined - dc.w  table_opddcb
004d50  0298                          op_ddcb2e - dc.w  table_opddcb
004d52  ffff                          op_undefined - dc.w  table_opddcb
004d54  ffff                          op_undefined - dc.w  table_opddcb
004d56  ffff                          op_undefined - dc.w  table_opddcb
004d58  ffff                          op_undefined - dc.w  table_opddcb
004d5a  ffff                          op_undefined - dc.w  table_opddcb
004d5c  ffff                          op_undefined - dc.w  table_opddcb
004d5e  ffff                          op_undefined - dc.w  table_opddcb
004d60  ffff                          op_undefined - dc.w  table_opddcb
004d62  ffff                          op_undefined - dc.w  table_opddcb
004d64  ffff                          op_undefined - dc.w  table_opddcb
004d66  ffff                          op_undefined - dc.w  table_opddcb
004d68  ffff                          op_undefined - dc.w  table_opddcb
004d6a  ffff                          op_undefined - dc.w  table_opddcb
004d6c  ffff                          op_undefined - dc.w  table_opddcb
004d6e  ffff                          op_undefined - dc.w  table_opddcb
004d70  02b6                          op_ddcb3e - dc.w  table_opddcb
004d72  ffff                          op_undefined - dc.w  table_opddcb
004d74  ffff                          op_undefined - dc.w  table_opddcb
004d76  ffff                          op_undefined - dc.w  table_opddcb
004d78  ffff                          op_undefined - dc.w  table_opddcb
004d7a  ffff                          op_undefined - dc.w  table_opddcb
004d7c  ffff                          op_undefined - dc.w  table_opddcb
004d7e  ffff                          op_undefined - dc.w  table_opddcb
004d80  02d4                          op_ddcb46 - dc.w  table_opddcb
004d82  ffff                          op_undefined - dc.w  table_opddcb
004d84  ffff                          op_undefined - dc.w  table_opddcb
004d86  ffff                          op_undefined - dc.w  table_opddcb
004d88  ffff                          op_undefined - dc.w  table_opddcb
004d8a  ffff                          op_undefined - dc.w  table_opddcb
004d8c  ffff                          op_undefined - dc.w  table_opddcb
004d8e  ffff                          op_undefined - dc.w  table_opddcb
004d90  02ea                          op_ddcb4e - dc.w  table_opddcb
004d92  ffff                          op_undefined - dc.w  table_opddcb
004d94  ffff                          op_undefined - dc.w  table_opddcb
004d96  ffff                          op_undefined - dc.w  table_opddcb
004d98  ffff                          op_undefined - dc.w  table_opddcb
004d9a  ffff                          op_undefined - dc.w  table_opddcb
004d9c  ffff                          op_undefined - dc.w  table_opddcb
004d9e  ffff                          op_undefined - dc.w  table_opddcb
004da0  0300                          op_ddcb56 - dc.w  table_opddcb
004da2  ffff                          op_undefined - dc.w  table_opddcb
004da4  ffff                          op_undefined - dc.w  table_opddcb
004da6  ffff                          op_undefined - dc.w  table_opddcb
004da8  ffff                          op_undefined - dc.w  table_opddcb
004daa  ffff                          op_undefined - dc.w  table_opddcb
004dac  ffff                          op_undefined - dc.w  table_opddcb
004dae  ffff                          op_undefined - dc.w  table_opddcb
004db0  0316                          op_ddcb5e - dc.w  table_opddcb
004db2  ffff                          op_undefined - dc.w  table_opddcb
004db4  ffff                          op_undefined - dc.w  table_opddcb
004db6  ffff                          op_undefined - dc.w  table_opddcb
004db8  ffff                          op_undefined - dc.w  table_opddcb
004dba  ffff                          op_undefined - dc.w  table_opddcb
004dbc  ffff                          op_undefined - dc.w  table_opddcb
004dbe  ffff                          op_undefined - dc.w  table_opddcb
004dc0  032c                          op_ddcb66 - dc.w  table_opddcb
004dc2  ffff                          op_undefined - dc.w  table_opddcb
004dc4  ffff                          op_undefined - dc.w  table_opddcb
004dc6  ffff                          op_undefined - dc.w  table_opddcb
004dc8  ffff                          op_undefined - dc.w  table_opddcb
004dca  ffff                          op_undefined - dc.w  table_opddcb
004dcc  ffff                          op_undefined - dc.w  table_opddcb
004dce  ffff                          op_undefined - dc.w  table_opddcb
004dd0  0342                          op_ddcb6e - dc.w  table_opddcb
004dd2  ffff                          op_undefined - dc.w  table_opddcb
004dd4  ffff                          op_undefined - dc.w  table_opddcb
004dd6  ffff                          op_undefined - dc.w  table_opddcb
004dd8  ffff                          op_undefined - dc.w  table_opddcb
004dda  ffff                          op_undefined - dc.w  table_opddcb
004ddc  ffff                          op_undefined - dc.w  table_opddcb
004dde  ffff                          op_undefined - dc.w  table_opddcb
004de0  0358                          op_ddcb76 - dc.w  table_opddcb
004de2  ffff                          op_undefined - dc.w  table_opddcb
004de4  ffff                          op_undefined - dc.w  table_opddcb
004de6  ffff                          op_undefined - dc.w  table_opddcb
004de8  ffff                          op_undefined - dc.w  table_opddcb
004dea  ffff                          op_undefined - dc.w  table_opddcb
004dec  ffff                          op_undefined - dc.w  table_opddcb
004dee  ffff                          op_undefined - dc.w  table_opddcb
004df0  036e                          op_ddcb7e - dc.w  table_opddcb
004df2  ffff                          op_undefined - dc.w  table_opddcb
004df4  ffff                          op_undefined - dc.w  table_opddcb
004df6  ffff                          op_undefined - dc.w  table_opddcb
004df8  ffff                          op_undefined - dc.w  table_opddcb
004dfa  ffff                          op_undefined - dc.w  table_opddcb
004dfc  ffff                          op_undefined - dc.w  table_opddcb
004dfe  ffff                          op_undefined - dc.w  table_opddcb
004e00  0382                          op_ddcb86 - dc.w  table_opddcb
004e02  ffff                          op_undefined - dc.w  table_opddcb
004e04  ffff                          op_undefined - dc.w  table_opddcb
004e06  ffff                          op_undefined - dc.w  table_opddcb
004e08  ffff                          op_undefined - dc.w  table_opddcb
004e0a  ffff                          op_undefined - dc.w  table_opddcb
004e0c  ffff                          op_undefined - dc.w  table_opddcb
004e0e  ffff                          op_undefined - dc.w  table_opddcb
004e10  0396                          op_ddcb8e - dc.w  table_opddcb
004e12  ffff                          op_undefined - dc.w  table_opddcb
004e14  ffff                          op_undefined - dc.w  table_opddcb
004e16  ffff                          op_undefined - dc.w  table_opddcb
004e18  ffff                          op_undefined - dc.w  table_opddcb
004e1a  ffff                          op_undefined - dc.w  table_opddcb
004e1c  ffff                          op_undefined - dc.w  table_opddcb
004e1e  ffff                          op_undefined - dc.w  table_opddcb
004e20  03aa                          op_ddcb96 - dc.w  table_opddcb
004e22  ffff                          op_undefined - dc.w  table_opddcb
004e24  ffff                          op_undefined - dc.w  table_opddcb
004e26  ffff                          op_undefined - dc.w  table_opddcb
004e28  ffff                          op_undefined - dc.w  table_opddcb
004e2a  ffff                          op_undefined - dc.w  table_opddcb
004e2c  ffff                          op_undefined - dc.w  table_opddcb
004e2e  ffff                          op_undefined - dc.w  table_opddcb
004e30  03be                          op_ddcb9e - dc.w  table_opddcb
004e32  ffff                          op_undefined - dc.w  table_opddcb
004e34  ffff                          op_undefined - dc.w  table_opddcb
004e36  ffff                          op_undefined - dc.w  table_opddcb
004e38  ffff                          op_undefined - dc.w  table_opddcb
004e3a  ffff                          op_undefined - dc.w  table_opddcb
004e3c  ffff                          op_undefined - dc.w  table_opddcb
004e3e  ffff                          op_undefined - dc.w  table_opddcb
004e40  03d2                          op_ddcba6 - dc.w  table_opddcb
004e42  ffff                          op_undefined - dc.w  table_opddcb
004e44  ffff                          op_undefined - dc.w  table_opddcb
004e46  ffff                          op_undefined - dc.w  table_opddcb
004e48  ffff                          op_undefined - dc.w  table_opddcb
004e4a  ffff                          op_undefined - dc.w  table_opddcb
004e4c  ffff                          op_undefined - dc.w  table_opddcb
004e4e  ffff                          op_undefined - dc.w  table_opddcb
004e50  03e6                          op_ddcbae - dc.w  table_opddcb
004e52  ffff                          op_undefined - dc.w  table_opddcb
004e54  ffff                          op_undefined - dc.w  table_opddcb
004e56  ffff                          op_undefined - dc.w  table_opddcb
004e58  ffff                          op_undefined - dc.w  table_opddcb
004e5a  ffff                          op_undefined - dc.w  table_opddcb
004e5c  ffff                          op_undefined - dc.w  table_opddcb
004e5e  ffff                          op_undefined - dc.w  table_opddcb
004e60  03fa                          op_ddcbb6 - dc.w  table_opddcb
004e62  ffff                          op_undefined - dc.w  table_opddcb
004e64  ffff                          op_undefined - dc.w  table_opddcb
004e66  ffff                          op_undefined - dc.w  table_opddcb
004e68  ffff                          op_undefined - dc.w  table_opddcb
004e6a  ffff                          op_undefined - dc.w  table_opddcb
004e6c  ffff                          op_undefined - dc.w  table_opddcb
004e6e  ffff                          op_undefined - dc.w  table_opddcb
004e70  040e                          op_ddcbbe - dc.w  table_opddcb
004e72  ffff                          op_undefined - dc.w  table_opddcb
004e74  ffff                          op_undefined - dc.w  table_opddcb
004e76  ffff                          op_undefined - dc.w  table_opddcb
004e78  ffff                          op_undefined - dc.w  table_opddcb
004e7a  ffff                          op_undefined - dc.w  table_opddcb
004e7c  ffff                          op_undefined - dc.w  table_opddcb
004e7e  ffff                          op_undefined - dc.w  table_opddcb
004e80  0422                          op_ddcbc6 - dc.w  table_opddcb
004e82  ffff                          op_undefined - dc.w  table_opddcb
004e84  ffff                          op_undefined - dc.w  table_opddcb
004e86  ffff                          op_undefined - dc.w  table_opddcb
004e88  ffff                          op_undefined - dc.w  table_opddcb
004e8a  ffff                          op_undefined - dc.w  table_opddcb
004e8c  ffff                          op_undefined - dc.w  table_opddcb
004e8e  ffff                          op_undefined - dc.w  table_opddcb
004e90  0436                          op_ddcbce - dc.w  table_opddcb
004e92  ffff                          op_undefined - dc.w  table_opddcb
004e94  ffff                          op_undefined - dc.w  table_opddcb
004e96  ffff                          op_undefined - dc.w  table_opddcb
004e98  ffff                          op_undefined - dc.w  table_opddcb
004e9a  ffff                          op_undefined - dc.w  table_opddcb
004e9c  ffff                          op_undefined - dc.w  table_opddcb
004e9e  ffff                          op_undefined - dc.w  table_opddcb
004ea0  044a                          op_ddcbd6 - dc.w  table_opddcb
004ea2  ffff                          op_undefined - dc.w  table_opddcb
004ea4  ffff                          op_undefined - dc.w  table_opddcb
004ea6  ffff                          op_undefined - dc.w  table_opddcb
004ea8  ffff                          op_undefined - dc.w  table_opddcb
004eaa  ffff                          op_undefined - dc.w  table_opddcb
004eac  ffff                          op_undefined - dc.w  table_opddcb
004eae  ffff                          op_undefined - dc.w  table_opddcb
004eb0  045e                          op_ddcbde - dc.w  table_opddcb
004eb2  ffff                          op_undefined - dc.w  table_opddcb
004eb4  ffff                          op_undefined - dc.w  table_opddcb
004eb6  ffff                          op_undefined - dc.w  table_opddcb
004eb8  ffff                          op_undefined - dc.w  table_opddcb
004eba  ffff                          op_undefined - dc.w  table_opddcb
004ebc  ffff                          op_undefined - dc.w  table_opddcb
004ebe  ffff                          op_undefined - dc.w  table_opddcb
004ec0  0472                          op_ddcbe6 - dc.w  table_opddcb
004ec2  ffff                          op_undefined - dc.w  table_opddcb
004ec4  ffff                          op_undefined - dc.w  table_opddcb
004ec6  ffff                          op_undefined - dc.w  table_opddcb
004ec8  ffff                          op_undefined - dc.w  table_opddcb
004eca  ffff                          op_undefined - dc.w  table_opddcb
004ecc  ffff                          op_undefined - dc.w  table_opddcb
004ece  ffff                          op_undefined - dc.w  table_opddcb
004ed0  0486                          op_ddcbee - dc.w  table_opddcb
004ed2  ffff                          op_undefined - dc.w  table_opddcb
004ed4  ffff                          op_undefined - dc.w  table_opddcb
004ed6  ffff                          op_undefined - dc.w  table_opddcb
004ed8  ffff                          op_undefined - dc.w  table_opddcb
004eda  ffff                          op_undefined - dc.w  table_opddcb
004edc  ffff                          op_undefined - dc.w  table_opddcb
004ede  ffff                          op_undefined - dc.w  table_opddcb
004ee0  049a                          op_ddcbf6 - dc.w  table_opddcb
004ee2  ffff                          op_undefined - dc.w  table_opddcb
004ee4  ffff                          op_undefined - dc.w  table_opddcb
004ee6  ffff                          op_undefined - dc.w  table_opddcb
004ee8  ffff                          op_undefined - dc.w  table_opddcb
004eea  ffff                          op_undefined - dc.w  table_opddcb
004eec  ffff                          op_undefined - dc.w  table_opddcb
004eee  ffff                          op_undefined - dc.w  table_opddcb
004ef0  04ae                          op_ddcbfe - dc.w  table_opddcb
004ef2  ffff                          op_undefined - dc.w  table_opddcb
        op_ddcb06:                    ; rlc (ix+d)
004ef4  1036 1800                     MOVE.b    $00(A6,D1.l),D0
004ef8  e318                          ROL.b     #1,D0
004efa  5bc2                          SMI       D2
004efc  57c3                          SEQ       D3
004efe  55c6                          SCS       D6
004f00  1d80 1800                     MOVE.b    D0,$00(A6,D1.l)
004f04  4240                          CLR.w     D0
004f06  1019                          MOVE.b    (A1)+,D0
004f08  d040                          ADD.w     D0,D0
004f0a  3233 0000                     MOVE.w    $00(A3,D0),D1
004f0e  4ef3 1000                     JMP       $00(A3,D1)
        op_ddcb0e:                    ; rrc (ix+d)
004f12  1036 1800                     MOVE.b    $00(A6,D1.l),D0
004f16  e218                          ROR.b     #1,D0
004f18  5bc2                          SMI       D2
004f1a  57c3                          SEQ       D3
004f1c  55c6                          SCS       D6
004f1e  1d80 1800                     MOVE.b    D0,$00(A6,D1.l)
004f22  4240                          CLR.w     D0
004f24  1019                          MOVE.b    (A1)+,D0
004f26  d040                          ADD.w     D0,D0
004f28  3233 0000                     MOVE.w    $00(A3,D0),D1
004f2c  4ef3 1000                     JMP       $00(A3,D1)
        op_ddcb16:                    ; rl (ix+d)
004f30  1036 1800                     MOVE.b    $00(A6,D1.l),D0
004f34  44c6                          MOVE      D6,ccr
004f36  e310                          ROXL.b    #1,D0
004f38  5bc2                          SMI       D2
004f3a  57c3                          SEQ       D3
004f3c  55c6                          SCS       D6
004f3e  1d80 1800                     MOVE.b    D0,$00(A6,D1.l)
004f42  4240                          CLR.w     D0
004f44  1019                          MOVE.b    (A1)+,D0
004f46  d040                          ADD.w     D0,D0
004f48  3233 0000                     MOVE.w    $00(A3,D0),D1
004f4c  4ef3 1000                     JMP       $00(A3,D1)
        op_ddcb1e:                    ; rr (ix+d)
004f50  1036 1800                     MOVE.b    $00(A6,D1.l),D0
004f54  44c6                          MOVE      D6,ccr
004f56  e210                          ROXR.b    #1,D0
004f58  5bc2                          SMI       D2
004f5a  57c3                          SEQ       D3
004f5c  55c6                          SCS       D6
004f5e  1d80 1800                     MOVE.b    D0,$00(A6,D1.l)
004f62  4240                          CLR.w     D0
004f64  1019                          MOVE.b    (A1)+,D0
004f66  d040                          ADD.w     D0,D0
004f68  3233 0000                     MOVE.w    $00(A3,D0),D1
004f6c  4ef3 1000                     JMP       $00(A3,D1)
        op_ddcb26:                    ; sla (ix+d)
004f70  1036 1800                     MOVE.b    $00(A6,D1.l),D0
004f74  d136 1800                     ADD.b     D0,$00(A6,D1.l)
004f78  5bc2                          SMI       D2
004f7a  57c3                          SEQ       D3
004f7c  55c6                          SCS       D6
004f7e  4240                          CLR.w     D0
004f80  1019                          MOVE.b    (A1)+,D0
004f82  d040                          ADD.w     D0,D0
004f84  3233 0000                     MOVE.w    $00(A3,D0),D1
004f88  4ef3 1000                     JMP       $00(A3,D1)
        op_ddcb2e:                    ; sra (ix+d)
004f8c  1036 1800                     MOVE.b    $00(A6,D1.l),D0
004f90  e200                          ASR.b     #1,D0
004f92  5bc2                          SMI       D2
004f94  57c3                          SEQ       D3
004f96  55c6                          SCS       D6
004f98  1d80 1800                     MOVE.b    D0,$00(A6,D1.l)
004f9c  4240                          CLR.w     D0
004f9e  1019                          MOVE.b    (A1)+,D0
004fa0  d040                          ADD.w     D0,D0
004fa2  3233 0000                     MOVE.w    $00(A3,D0),D1
004fa6  4ef3 1000                     JMP       $00(A3,D1)
        op_ddcb3e:                    ; srl (ix+d)
004faa  1036 1800                     MOVE.b    $00(A6,D1.l),D0
004fae  e208                          LSR.b     #1,D0
004fb0  5bc2                          SMI       D2
004fb2  57c3                          SEQ       D3
004fb4  55c6                          SCS       D6
004fb6  1d80 1800                     MOVE.b    D0,$00(A6,D1.l)
004fba  4240                          CLR.w     D0
004fbc  1019                          MOVE.b    (A1)+,D0
004fbe  d040                          ADD.w     D0,D0
004fc0  3233 0000                     MOVE.w    $00(A3,D0),D1
004fc4  4ef3 1000                     JMP       $00(A3,D1)
        op_ddcb46:                    ; bit 0,(ix+d)
004fc8  0836 0000 1800                BTST      #$00,$00(A6,D1.l)
004fce  57c3                          SEQ       D3
004fd0  4240                          CLR.w     D0
004fd2  1019                          MOVE.b    (A1)+,D0
004fd4  d040                          ADD.w     D0,D0
004fd6  3233 0000                     MOVE.w    $00(A3,D0),D1
004fda  4ef3 1000                     JMP       $00(A3,D1)
        op_ddcb4e:                    ; bit 1,(ix+d)
004fde  0836 0001 1800                BTST      #$01,$00(A6,D1.l)
004fe4  57c3                          SEQ       D3
004fe6  4240                          CLR.w     D0
004fe8  1019                          MOVE.b    (A1)+,D0
004fea  d040                          ADD.w     D0,D0
004fec  3233 0000                     MOVE.w    $00(A3,D0),D1
004ff0  4ef3 1000                     JMP       $00(A3,D1)
        op_ddcb56:                    ; bit 2,(ix+d)
004ff4  0836 0002 1800                BTST      #$02,$00(A6,D1.l)
004ffa  57c3                          SEQ       D3
004ffc  4240                          CLR.w     D0
004ffe  1019                          MOVE.b    (A1)+,D0
005000  d040                          ADD.w     D0,D0
005002  3233 0000                     MOVE.w    $00(A3,D0),D1
005006  4ef3 1000                     JMP       $00(A3,D1)
        op_ddcb5e:                    ; bit 3,(ix+d)
00500a  0836 0003 1800                BTST      #$03,$00(A6,D1.l)
005010  57c3                          SEQ       D3
005012  4240                          CLR.w     D0
005014  1019                          MOVE.b    (A1)+,D0
005016  d040                          ADD.w     D0,D0
005018  3233 0000                     MOVE.w    $00(A3,D0),D1
00501c  4ef3 1000                     JMP       $00(A3,D1)
        op_ddcb66:                    ; bit 4,(ix+d)
005020  0836 0004 1800                BTST      #$04,$00(A6,D1.l)
005026  57c3                          SEQ       D3
005028  4240                          CLR.w     D0
00502a  1019                          MOVE.b    (A1)+,D0
00502c  d040                          ADD.w     D0,D0
00502e  3233 0000                     MOVE.w    $00(A3,D0),D1
005032  4ef3 1000                     JMP       $00(A3,D1)
        op_ddcb6e:                    ; bit 5,(ix+d)
005036  0836 0005 1800                BTST      #$05,$00(A6,D1.l)
00503c  57c3                          SEQ       D3
00503e  4240                          CLR.w     D0
005040  1019                          MOVE.b    (A1)+,D0
005042  d040                          ADD.w     D0,D0
005044  3233 0000                     MOVE.w    $00(A3,D0),D1
005048  4ef3 1000                     JMP       $00(A3,D1)
        op_ddcb76:                    ; bit 6,(ix+d)
00504c  0836 0006 1800                BTST      #$06,$00(A6,D1.l)
005052  57c3                          SEQ       D3
005054  4240                          CLR.w     D0
005056  1019                          MOVE.b    (A1)+,D0
005058  d040                          ADD.w     D0,D0
00505a  3233 0000                     MOVE.w    $00(A3,D0),D1
00505e  4ef3 1000                     JMP       $00(A3,D1)
        op_ddcb7e:                    ; bit 7,(ix+d)
005062  4a36 1800                     TST.b     $00(A6,D1.l)
005066  5ac3                          SPL       D3
005068  4240                          CLR.w     D0
00506a  1019                          MOVE.b    (A1)+,D0
00506c  d040                          ADD.w     D0,D0
00506e  3233 0000                     MOVE.w    $00(A3,D0),D1
005072  4ef3 1000                     JMP       $00(A3,D1)
        op_ddcb86:                    ; res 0,(ix+d)
005076  08b6 0000 1800                BCLR      #$00,$00(A6,D1.l)
00507c  4240                          CLR.w     D0
00507e  1019                          MOVE.b    (A1)+,D0
005080  d040                          ADD.w     D0,D0
005082  3233 0000                     MOVE.w    $00(A3,D0),D1
005086  4ef3 1000                     JMP       $00(A3,D1)
        op_ddcb8e:                    ; res 1,(ix+d)
00508a  08b6 0001 1800                BCLR      #$01,$00(A6,D1.l)
005090  4240                          CLR.w     D0
005092  1019                          MOVE.b    (A1)+,D0
005094  d040                          ADD.w     D0,D0
005096  3233 0000                     MOVE.w    $00(A3,D0),D1
00509a  4ef3 1000                     JMP       $00(A3,D1)
        op_ddcb96:                    ; res 2,(ix+d)
00509e  08b6 0002 1800                BCLR      #$02,$00(A6,D1.l)
0050a4  4240                          CLR.w     D0
0050a6  1019                          MOVE.b    (A1)+,D0
0050a8  d040                          ADD.w     D0,D0
0050aa  3233 0000                     MOVE.w    $00(A3,D0),D1
0050ae  4ef3 1000                     JMP       $00(A3,D1)
        op_ddcb9e:                    ; res 3,(ix+d)
0050b2  08b6 0003 1800                BCLR      #$03,$00(A6,D1.l)
0050b8  4240                          CLR.w     D0
0050ba  1019                          MOVE.b    (A1)+,D0
0050bc  d040                          ADD.w     D0,D0
0050be  3233 0000                     MOVE.w    $00(A3,D0),D1
0050c2  4ef3 1000                     JMP       $00(A3,D1)
        op_ddcba6:                    ; res 4,(ix+d)
0050c6  08b6 0004 1800                BCLR      #$04,$00(A6,D1.l)
0050cc  4240                          CLR.w     D0
0050ce  1019                          MOVE.b    (A1)+,D0
0050d0  d040                          ADD.w     D0,D0
0050d2  3233 0000                     MOVE.w    $00(A3,D0),D1
0050d6  4ef3 1000                     JMP       $00(A3,D1)
        op_ddcbae:                    ; res 5,(ix+d)
0050da  08b6 0005 1800                BCLR      #$05,$00(A6,D1.l)
0050e0  4240                          CLR.w     D0
0050e2  1019                          MOVE.b    (A1)+,D0
0050e4  d040                          ADD.w     D0,D0
0050e6  3233 0000                     MOVE.w    $00(A3,D0),D1
0050ea  4ef3 1000                     JMP       $00(A3,D1)
        op_ddcbb6:                    ; res 6,(ix+d)
0050ee  08b6 0006 1800                BCLR      #$06,$00(A6,D1.l)
0050f4  4240                          CLR.w     D0
0050f6  1019                          MOVE.b    (A1)+,D0
0050f8  d040                          ADD.w     D0,D0
0050fa  3233 0000                     MOVE.w    $00(A3,D0),D1
0050fe  4ef3 1000                     JMP       $00(A3,D1)
        op_ddcbbe:                    ; res 7,(ix+d)
005102  08b6 0007 1800                BCLR      #$07,$00(A6,D1.l)
005108  4240                          CLR.w     D0
00510a  1019                          MOVE.b    (A1)+,D0
00510c  d040                          ADD.w     D0,D0
00510e  3233 0000                     MOVE.w    $00(A3,D0),D1
005112  4ef3 1000                     JMP       $00(A3,D1)
        op_ddcbc6:                    ; set 0,(ix+d)
005116  08f6 0000 1800                BSET      #$00,$00(A6,D1.l)
00511c  4240                          CLR.w     D0
00511e  1019                          MOVE.b    (A1)+,D0
005120  d040                          ADD.w     D0,D0
005122  3233 0000                     MOVE.w    $00(A3,D0),D1
005126  4ef3 1000                     JMP       $00(A3,D1)
        op_ddcbce:                    ; set 1,(ix+d)
00512a  08f6 0001 1800                BSET      #$01,$00(A6,D1.l)
005130  4240                          CLR.w     D0
005132  1019                          MOVE.b    (A1)+,D0
005134  d040                          ADD.w     D0,D0
005136  3233 0000                     MOVE.w    $00(A3,D0),D1
00513a  4ef3 1000                     JMP       $00(A3,D1)
        op_ddcbd6:                    ; set 2,(ix+d)
00513e  08f6 0002 1800                BSET      #$02,$00(A6,D1.l)
005144  4240                          CLR.w     D0
005146  1019                          MOVE.b    (A1)+,D0
005148  d040                          ADD.w     D0,D0
00514a  3233 0000                     MOVE.w    $00(A3,D0),D1
00514e  4ef3 1000                     JMP       $00(A3,D1)
        op_ddcbde:                    ; set 3,(ix+d)
005152  08f6 0003 1800                BSET      #$03,$00(A6,D1.l)
005158  4240                          CLR.w     D0
00515a  1019                          MOVE.b    (A1)+,D0
00515c  d040                          ADD.w     D0,D0
00515e  3233 0000                     MOVE.w    $00(A3,D0),D1
005162  4ef3 1000                     JMP       $00(A3,D1)
        op_ddcbe6:                    ; set 4,(ix+d)
005166  08f6 0004 1800                BSET      #$04,$00(A6,D1.l)
00516c  4240                          CLR.w     D0
00516e  1019                          MOVE.b    (A1)+,D0
005170  d040                          ADD.w     D0,D0
005172  3233 0000                     MOVE.w    $00(A3,D0),D1
005176  4ef3 1000                     JMP       $00(A3,D1)
        op_ddcbee:                    ; set 5,(ix+d)
00517a  08f6 0005 1800                BSET      #$05,$00(A6,D1.l)
005180  4240                          CLR.w     D0
005182  1019                          MOVE.b    (A1)+,D0
005184  d040                          ADD.w     D0,D0
005186  3233 0000                     MOVE.w    $00(A3,D0),D1
00518a  4ef3 1000                     JMP       $00(A3,D1)
        op_ddcbf6:                    ; set 6,(ix+d)
00518e  08f6 0006 1800                BSET      #$06,$00(A6,D1.l)
005194  4240                          CLR.w     D0
005196  1019                          MOVE.b    (A1)+,D0
005198  d040                          ADD.w     D0,D0
00519a  3233 0000                     MOVE.w    $00(A3,D0),D1
00519e  4ef3 1000                     JMP       $00(A3,D1)
        op_ddcbfe:                    ; set 7,(ix+d)
0051a2  08f6 0007 1800                BSET      #$07,$00(A6,D1.l)
0051a8  4240                          CLR.w     D0
0051aa  1019                          MOVE.b    (A1)+,D0
0051ac  d040                          ADD.w     D0,D0
0051ae  3233 0000                     MOVE.w    $00(A3,D0),D1
0051b2  4ef3 1000                     JMP       $00(A3,D1)
